20001bbc b .LANCHOR0
0808092c t .LANCHOR0
20007714 b .LANCHOR0
200053f0 b .LANCHOR0
20007864 b .LANCHOR0
2000772c b .LANCHOR0
20004be0 b .LANCHOR0
20007710 b .LANCHOR0
20001334 d .LANCHOR0
200076f4 b .LANCHOR0
20001336 d .LANCHOR0
20007748 b .LANCHOR0
2000774c b .LANCHOR0
20007754 b .LANCHOR0
200015a8 d .LANCHOR0
200076f0 b .LANCHOR0
20003e04 b .LANCHOR0
200077e0 b .LANCHOR0
20007844 b .LANCHOR0
08087c2c t .LANCHOR0
20007f58 b .LANCHOR0
20003e58 b .LANCHOR0
200061c8 b .LANCHOR0
200061bc b .LANCHOR0
200057a8 b .LANCHOR0
200061b8 b .LANCHOR0
20001422 d .LANCHOR0
20004cb8 b .LANCHOR0
200053a8 b .LANCHOR0
20003eac b .LANCHOR0
20002f88 b .LANCHOR0
200057d0 b .LANCHOR0
20002fdc b .LANCHOR0
20001010 d .LANCHOR0
20001a20 b .LANCHOR0
200053a2 b .LANCHOR0
20003e88 b .LANCHOR0
20001a30 b .LANCHOR0
20002f58 b .LANCHOR0
20002f28 b .LANCHOR0
20007890 b .LANCHOR0
20001a34 b .LANCHOR0
20005800 b .LANCHOR0
200014a4 d .LANCHOR0
20005790 b .LANCHOR0
20002058 b .LANCHOR0
20001520 d .LANCHOR0
20001c08 b .LANCHOR0
20005398 b .LANCHOR0
20005804 b .LANCHOR0
20001510 d .LANCHOR0
20001aec b .LANCHOR0
20005eb4 b .LANCHOR0
20003ba8 b .LANCHOR0
200055d0 b .LANCHOR0
20005200 b .LANCHOR0
20002f90 b .LANCHOR0
0807e8cc t .LANCHOR0
200078d4 b .LANCHOR0
20001b90 b .LANCHOR0
20003c70 b .LANCHOR0
200051d4 b .LANCHOR0
20005928 b .LANCHOR0
20003008 b .LANCHOR0
20001bc0 b .LANCHOR1
2000591c b .LANCHOR1
200051c8 b .LANCHOR1
0808093c t .LANCHOR1
20003c88 b .LANCHOR1
20001b9c b .LANCHOR1
200057a4 b .LANCHOR1
20003ba0 b .LANCHOR1
20005918 b .LANCHOR1
20001b10 b .LANCHOR1
2000539c b .LANCHOR1
20001c2c b .LANCHOR1
20001504 d .LANCHOR1
080830b8 t .LANCHOR1
08080c78 t .LANCHOR1
20002480 b .LANCHOR1
20002fb0 b .LANCHOR1
200013e4 d .LANCHOR1
20001a38 b .LANCHOR1
20001528 d .LANCHOR1
20002e00 b .LANCHOR1
20004cb0 b .LANCHOR1
20001a28 b .LANCHOR1
20002f2c b .LANCHOR1
08080bf8 t .LANCHOR1
20003ea4 b .LANCHOR1
20002f89 b .LANCHOR1
200053b0 b .LANCHOR1
2000159a d .LANCHOR1
20003e50 b .LANCHOR1
200078e8 b .LANCHOR1
20004adc b .LANCHOR1
200057b0 b .LANCHOR1
20005400 b .LANCHOR1
200077d4 b .LANCHOR1
20003a8c b .LANCHOR1
20007f64 b .LANCHOR1
20007740 b .LANCHOR1
20007708 b .LANCHOR1
200037c0 b .LANCHOR1
20007914 b .LANCHOR1
20007878 b .LANCHOR1
20003df0 b .LANCHOR1
20003010 b .LANCHOR1
20007738 b .LANCHOR1
20001434 d .LANCHOR1
20007720 b .LANCHOR1
20002fb8 b .LANCHOR1
20005944 b .LANCHOR10
200053c0 b .LANCHOR10
0807ee1c t .LANCHOR10
20003e82 b .LANCHOR10
20007838 b .LANCHOR10
200078fc b .LANCHOR10
20003a00 b .LANCHOR10
20003de8 b .LANCHOR10
200078c0 b .LANCHOR11
2000159c d .LANCHOR11
200053c4 b .LANCHOR11
20003e83 b .LANCHOR11
20005df8 b .LANCHOR11
20003aa0 b .LANCHOR11
20003e18 b .LANCHOR11
0807ee34 t .LANCHOR12
20003c94 b .LANCHOR12
20005be8 b .LANCHOR12
200077e4 b .LANCHOR12
200078c8 b .LANCHOR12
20003a90 b .LANCHOR12
200053d0 b .LANCHOR12
20003e84 b .LANCHOR12
0807f2f0 t .LANCHOR13
200078d8 b .LANCHOR13
20001424 d .LANCHOR13
20003aa8 b .LANCHOR13
2000158c d .LANCHOR13
20003e5c b .LANCHOR13
20005b84 b .LANCHOR13
08080500 t .LANCHOR14
0807f28c t .LANCHOR14
200078a4 b .LANCHOR14
200037c8 b .LANCHOR14
20007860 b .LANCHOR14
20005bec b .LANCHOR14
200053b8 b .LANCHOR14
0807ee4c t .LANCHOR15
20001428 d .LANCHOR15
20003cd0 b .LANCHOR15
20007862 b .LANCHOR15
200015a4 d .LANCHOR15
20003a9c b .LANCHOR15
08082c1c t .LANCHOR15
200053b4 b .LANCHOR16
0807ef84 t .LANCHOR16
200077f4 b .LANCHOR16
20003d60 b .LANCHOR16
20005bf8 b .LANCHOR16
20003a28 b .LANCHOR16
200078a0 b .LANCHOR16
20003d68 b .LANCHOR17
08082c54 t .LANCHOR17
200015a6 d .LANCHOR17
0807ee64 t .LANCHOR17
2000785c b .LANCHOR17
20003ce0 b .LANCHOR18
0807ef58 t .LANCHOR18
20007820 b .LANCHOR18
200078ec b .LANCHOR18
20001518 d .LANCHOR18
0807edf8 t .LANCHOR19
200078b0 b .LANCHOR19
20003dec b .LANCHOR19
2000783c b .LANCHOR19
20005b80 b .LANCHOR19
20001c00 b .LANCHOR2
20003c90 b .LANCHOR2
08080a20 t .LANCHOR2
20001ba0 b .LANCHOR2
20002f30 b .LANCHOR2
0807eeb8 t .LANCHOR2
200078ac b .LANCHOR2
20003e70 b .LANCHOR2
20003fec b .LANCHOR2
2000205c b .LANCHOR2
200058e8 b .LANCHOR2
20001af0 b .LANCHOR2
20003a98 b .LANCHOR2
08080ce8 t .LANCHOR2
200057ac b .LANCHOR2
0807e120 t .LANCHOR2
0808794c t .LANCHOR2
200053a6 b .LANCHOR2
2000787c b .LANCHOR2
20003ea8 b .LANCHOR2
20001438 d .LANCHOR2
20007818 b .LANCHOR2
20007728 b .LANCHOR2
20003004 b .LANCHOR2
200015ac d .LANCHOR2
20007910 b .LANCHOR2
200014e8 d .LANCHOR2
20007750 b .LANCHOR2
20007730 b .LANCHOR2
20003cc0 b .LANCHOR2
20003b00 b .LANCHOR2
200057a0 b .LANCHOR2
20001c28 b .LANCHOR2
20002fc8 b .LANCHOR2
200078c4 b .LANCHOR20
200077e8 b .LANCHOR20
2000592c b .LANCHOR20
0807ee0c t .LANCHOR20
20003e08 b .LANCHOR20
0807eee8 t .LANCHOR21
08082c5c t .LANCHOR21
200078bc b .LANCHOR21
20007848 b .LANCHOR21
20007828 b .LANCHOR22
200078d0 b .LANCHOR22
0807ef08 t .LANCHOR22
20005bf0 b .LANCHOR22
08080ccc t .LANCHOR23
200078b4 b .LANCHOR23
20001598 d .LANCHOR23
08081550 t .LANCHOR24
200015a2 d .LANCHOR24
20007824 b .LANCHOR24
200078cc b .LANCHOR25
200077f8 b .LANCHOR25
20007900 b .LANCHOR26
20007850 b .LANCHOR26
2000781c b .LANCHOR27
200078f4 b .LANCHOR27
20007840 b .LANCHOR28
20007902 b .LANCHOR28
20007868 b .LANCHOR3
2000134c d .LANCHOR3
20003eec b .LANCHOR3
2000579c b .LANCHOR3
0807e0ec t .LANCHOR3
200053c8 b .LANCHOR3
20007718 b .LANCHOR3
200013f4 d .LANCHOR3
20003cb0 b .LANCHOR3
20001c30 b .LANCHOR3
200014a8 d .LANCHOR3
080869d4 t .LANCHOR3
200078a8 b .LANCHOR3
08081674 t .LANCHOR3
20007908 b .LANCHOR3
200037d0 b .LANCHOR3
20007854 b .LANCHOR3
200015b0 d .LANCHOR3
20003e8c b .LANCHOR3
20001308 d .LANCHOR3
20001c34 b .LANCHOR3
20003e56 b .LANCHOR3
20001bb8 b .LANCHOR3
20002fd8 b .LANCHOR3
2000300c b .LANCHOR3
080869d8 t .LANCHOR4
20007f54 b .LANCHOR4
20002fe0 b .LANCHOR4
20003a24 b .LANCHOR4
200077f0 b .LANCHOR4
20001bb9 b .LANCHOR4
2000790c b .LANCHOR4
20005c38 b .LANCHOR4
20001404 d .LANCHOR4
200055c0 b .LANCHOR4
20003df4 b .LANCHOR4
200078f8 b .LANCHOR4
0807e104 t .LANCHOR4
200053e8 b .LANCHOR4
2000788c b .LANCHOR4
20003c80 b .LANCHOR4
20002ff4 b .LANCHOR4
20003e54 b .LANCHOR4
20004ae0 b .LANCHOR4
200037b8 b .LANCHOR5
20001414 d .LANCHOR5
0807e110 t .LANCHOR5
20003e6c b .LANCHOR5
20007904 b .LANCHOR5
200053d4 b .LANCHOR5
0807f034 t .LANCHOR5
20003cd4 b .LANCHOR5
20005fc4 b .LANCHOR5
20007f5c b .LANCHOR5
200078dc b .LANCHOR5
20007858 b .LANCHOR5
0807ef40 t .LANCHOR5
20003c84 b .LANCHOR5
200015a0 d .LANCHOR5
0807ef28 t .LANCHOR6
20007814 b .LANCHOR6
20007f60 b .LANCHOR6
20007918 b .LANCHOR6
200053e0 b .LANCHOR6
200053a4 b .LANCHOR6
20003e6d b .LANCHOR6
20003a94 b .LANCHOR6
2000593c b .LANCHOR6
200078e4 b .LANCHOR6
20003c48 b .LANCHOR6
20003cd8 b .LANCHOR6
20007898 b .LANCHOR6
20003e85 b .LANCHOR7
20003c78 b .LANCHOR7
20001594 d .LANCHOR7
0807ef6c t .LANCHOR7
2000791c b .LANCHOR7
20007894 b .LANCHOR7
200078b8 b .LANCHOR7
200053cc b .LANCHOR7
20005bfc b .LANCHOR7
20003cdc b .LANCHOR7
0807f044 t .LANCHOR7
20005ab8 b .LANCHOR8
0807f050 t .LANCHOR8
2000789c b .LANCHOR8
200078e0 b .LANCHOR8
20007830 b .LANCHOR8
20003c8c b .LANCHOR8
20003e80 b .LANCHOR8
200053d8 b .LANCHOR8
20003d64 b .LANCHOR8
20001590 d .LANCHOR9
200053dc b .LANCHOR9
200078f0 b .LANCHOR9
20003e10 b .LANCHOR9
20003e81 b .LANCHOR9
0807eed0 t .LANCHOR9
20005bd0 b .LANCHOR9
20003a20 b .LANCHOR9
0807c708 T __adddf3
0807d108 T __addsf3
0807cf2c T __aeabi_cdcmpeq
0807cf2c T __aeabi_cdcmple
0807cf1c T __aeabi_cdrcmple
0807d630 T __aeabi_cfcmpeq
0807d630 T __aeabi_cfcmple
0807d628 T __aeabi_cfrcmple
0807d05c T __aeabi_d2f
0807cfcc T __aeabi_d2iz
0807d774 T __aeabi_d2lz
0807d01c T __aeabi_d2uiz
0807d7a4 T __aeabi_d2ulz
0807c708 T __aeabi_dadd
0807cf3c T __aeabi_dcmpeq
0807cf78 T __aeabi_dcmpge
0807cf8c T __aeabi_dcmpgt
0807cf64 T __aeabi_dcmple
0807cf50 T __aeabi_dcmplt
0807cfa0 T __aeabi_dcmpun
0807ccc0 T __aeabi_ddiv
0807ca6c T __aeabi_dmul
0807c6fc T __aeabi_drsub
0807c704 T __aeabi_dsub
0807c9c4 T __aeabi_f2d
0807d108 T __aeabi_fadd
0807d640 T __aeabi_fcmpeq
0807d67c T __aeabi_fcmpge
0807d690 T __aeabi_fcmpgt
0807d668 T __aeabi_fcmple
0807d654 T __aeabi_fcmplt
0807d480 T __aeabi_fdiv
0807d318 T __aeabi_fmul
0807d0fc T __aeabi_frsub
0807d104 T __aeabi_fsub
0807c9a0 T __aeabi_i2d
0807d270 T __aeabi_i2f
0807dad8 W __aeabi_idiv0
0807ca10 T __aeabi_l2d
0807d29c T __aeabi_l2f
0807dad8 W __aeabi_ldiv0
0807d6a4 T __aeabi_ldivmod
0807c980 T __aeabi_ui2d
0807d268 T __aeabi_ui2f
0807ca00 T __aeabi_ul2d
0807d28c T __aeabi_ul2f
0807d744 T __aeabi_uldivmod
0807cea0 T __cmpdf2
0807d5c8 T __cmpsf2
0807c550 T __d2b
0807ccc0 T __divdf3
0807d480 T __divsf3
         U __dso_handle
0807cea0 T __eqdf2
0807d5c8 T __eqsf2
0807a32c T __errno
0807c9c4 T __extendsfdf2
200015b4 D __fdlib_version
0807d774 T __fixdfdi
0807cfcc T __fixdfsi
0807d7a4 T __fixunsdfdi
0807d01c T __fixunsdfsi
0807ca10 T __floatdidf
0807d29c T __floatdisf
0807c9a0 T __floatsidf
0807d270 T __floatsisf
0807ca00 T __floatundidf
0807d28c T __floatundisf
0807c980 T __floatunsidf
0807d268 T __floatunsisf
0807ce90 T __gedf2
0807d5b8 T __gesf2
0803fc78 T __get_PRIMASK
0807ce90 T __gtdf2
0807d5b8 T __gtsf2
0807c16c T __hi0bits
0807c206 T __i2b
08076a18 T __ieee754_acos
08076eb8 T __ieee754_asin
080772a8 T __ieee754_atan2
08077448 T __ieee754_cosh
08077578 T __ieee754_exp
08077844 T __ieee754_fmod
08077a38 T __ieee754_log
08077dd0 T __ieee754_log10
08077ed8 T __ieee754_pow
080788c0 T __ieee754_rem_pio2
08078c9c T __ieee754_remainder
08078de8 T __ieee754_sinh
08078f48 T __ieee754_sqrt
08075bf0 T __isinfd
08075c0e T __isnand
080790a0 T __kernel_cos
0807925c T __kernel_rem_pio2
080798f0 T __kernel_sin
08079a58 T __kernel_tan
0807ce98 T __ledf2
0807d5c0 T __lesf2
0807c1ac T __lo0bits
0807c3b8 T __lshift
0807ce98 T __ltdf2
0807d5c0 T __ltsf2
0807c45a T __mcmp
0807c492 T __mdiff
0808c830 T __mprec_bigtens
0808c768 T __mprec_tens
0807ca6c T __muldf3
0807d318 T __mulsf3
0807c0f6 T __multadd
0807c218 T __multiply
0807cea0 T __nedf2
0807d5c8 T __nesf2
0807c338 T __pow5mult
0803fc80 T __set_PRIMASK
08075dd4 T __signbitd
0807c5fc T __ssprint_r
0807c704 T __subdf3
0807d104 T __subsf3
0807d05c T __truncdfsf2
0807d7ec T __udivmoddi4
0807cfa0 T __unorddf2
00000000 A __use_no_semihosting_swi
0807c098 T _Balloc
0807c0e4 T _Bfree
08056b58 T _calloc_r
0807b568 T _dtoa_r
0804f3c4 T _free_r
200019e0 D _impure_ptr
0807a370 T _localeconv_r
08056ad8 T _malloc_r
08057090 T _realloc_r
0807a338 T _setlocale_r
         U _start
0807a4dc T _svfprintf_r
0807a468 T _vsnprintf_r
08020328 T _Z10ClrStartup12CLR_SETTINGS
08027e70 T _Z10Events_Getj
08027e30 T _Z10Events_Setj
0807159c T _Z10findMedianPti
0803b690 T _Z10hal_printfPKcz
08047ba0 T _Z10High_Powerv
08047988 t _Z10High_Powerv.part.0
0804613c T _Z10I2C_CancelP15I2C_HAL_XACTIONb
0804887c T _Z10Piezo_Tonejj
0803567c T _Z10RT_Disposev
0803ce58 T _Z10USART_ReadiPcj
0803b6b8 T _Z11hal_fprintfiPKcz
0803b78c T _Z11hal_stricmpPKcS0_
0803b67c T _Z11hal_vprintfPKcSt9__va_list
080460cc T _Z11I2C_EnqueueP15I2C_HAL_XACTION
08074d7c T _Z11maxSortDownP11HeapTrack_ti
08074ce8 T _Z11minSortDownP11HeapTrack_ti
08044a14 T _Z11TimeHandlerPv
0803c214 T _Z11USART_Flushi
0802a320 T _Z11USART_pausev
0803c0a4 T _Z11USART_WriteiPKcj
08071d1c T _Z12getUnwrapMaxv
0803b6d8 T _Z12hal_snprintfPcjPKcz
0803b724 T _Z12hal_strcpy_sPcjPKc
0803b77c T _Z12hal_strlen_sPKc
0803b5f0 T _Z12hal_vfprintfiPKcSt9__va_list
08045fec T _Z12HeapLocationRPhRj
08074ec4 T _Z12HeapTrackNewi
08027f88 T _Z12LCD_GetWidthv
0806ebcc T _Z12processPhasePtS_S_i
08037784 T _Z12radio_spi_goh
0803a03c T _Z12si446x_resetv
0803a260 T _Z12SOCKETS_ReadiPcj
0802a384 T _Z12USART_reinitv
080451e0 T _Z13AD_ADChannelsv
08044e34 T _Z13AD_Initialize14ANALOG_CHANNELi
08044be8 T _Z13BackLight_Setj
0806ac98 T _Z13DA_DAChannelsv
0806ac20 T _Z13DA_Initialize10DA_CHANNELi
08074960 T _Z13datastore_absi
08044c30 T _Z13FS_AddVolumesv
08044c34 T _Z13FS_Initializev
08071df4 T _Z13getAbsOffsetIv
08071de4 T _Z13getAbsOffsetQv
08071d30 T _Z13getUnwrapZerov
0803b750 T _Z13hal_strncpy_sPcjPKcj
0803b720 T _Z13hal_vsnprintfPcjPKcSt9__va_list
0802a0c0 T _Z13ISR_RTC_ALARMPv
08027f8c T _Z13LCD_GetHeightv
08066e40 T _Z13LinkArraySizev
08028fdc T _Z13MFUpdate_Openj
080353a8 T _Z13Radio_HandlerjjPv
080385b4 T _Z13si446x_hal_rxh
0803a264 T _Z13SOCKETS_Flushi
0803a25c T _Z13SOCKETS_WriteiPKcj
0803cfa4 T _Z13USB_ConfigureiPK25USB_DYNAMIC_CONFIGURATION
08071688 T _Z14calculatePhasePtS_S_issitttt
08044bf4 T _Z14Charger_StatusRj
0804bd2c T _Z14CLR_SoftRebootv
08029b90 T _Z14CPU_Initializev
08029eac T _Z14CPU_Radio_SendhPvt
08047ca4 T _Z14CPU_SPI_Enable17SPI_CONFIGURATION
08046d48 T _Z14GPIO_GetNumberP12GPIO_TypeDeft
0803ba34 T _Z14HAL_Initializev
08046040 T _Z14I2C_Initializev
080462a4 T _Z14Ink_Initializev
08044c54 T _Z14ISR_ADC_PERIODPv
08027f7c T _Z14LCD_Initializev
08027f98 T _Z14MAC_InitializeP15MACEventHandlerhhhPv
080377cc T _Z14radio_shutdowni
08074e64 T _Z14ResetHeapTrackP11HeapTrack_ti
08030874 T _Z14SendAckHandlerPvt11NetOpStatush
0804f28c T _Z14SetResult_INT8R17CLR_RT_StackFramea
0802a2ac T _Z14USART2_HandlerPv
0803cfa0 T _Z14USB_Initializei
0803cfac T _Z14USB_OpenStreamiii
0803d314 T _Z14VirtTimer_Stoph
080455e4 T _Z15AD_StopSamplingv
08045044 T _Z15AD_Uninitialize14ANALOG_CHANNEL
08045074 T _Z15AD_Uninitializev
08044c08 T _Z15Battery_VoltageRi
08026bcc T _Z15beaconSchedulerPv
08024b00 T _Z15CLR_SafeSprintfRPcRjPKcz
0804b360 T _Z15CompareResourcePKvS0_
08029fe8 T _Z15CPU_Radio_Sleephh
08047dc0 T _Z15CPU_SPI_GetPinsjRjS_S_
080273b8 T _Z15CPU_SystemClockt
08027400 T _Z15CPU_TicksToTimeyt
0806ac70 T _Z15DA_Uninitialize10DA_CHANNEL
08071d44 T _Z15getDisplacementi
08045f74 T _Z15hal_adc_getDataPthh
08074f30 T _Z15HeapTrackInsertP11HeapTrack_ti
0807511c T _Z15HeapTrackMedianP11HeapTrack_t
080353c8 T _Z15ISR_RT_DebuggerPv
08027ff4 T _Z15MAC_ReconfigurePv
0802949c T _Z15MFUpdate_Createj
080293d8 T _Z15MFUpdate_Deletej
0806e360 T _Z15PWM_PWMChannelsv
0804f320 T _Z15SetResult_floatR17CLR_RT_StackFramef
0804f2a4 T _Z15SetResult_INT32R17CLR_RT_StackFramei
0804f2bc T _Z15SetResult_UINT8R17CLR_RT_StackFrameh
08036288 T _Z15ShutdownDriversv
080377ec T _Z15si446x_hal_initP17RadioEventHandlerhh
08038314 T _Z15si446x_hal_sendhPvt
08039a64 T _Z15si446x_start_txhht
0803b4f0 T _Z15Time_GetUtcTimev
0803b4d8 T _Z15Time_Initializev
0803b4fc T _Z15Time_SetUtcTimexb
0803cfb0 T _Z15USB_CloseStreami
0803cfc0 T _Z15USB_DiscardDataij
0803d1d8 T _Z15VirtTimer_Starth
0803b4c4 T _Z15Watchdog_EnablejPFvPvES_
08047e60 T _Z16CPU_SPI_ReadByteRK17SPI_CONFIGURATION
08027f78 T _Z16FreeManagedEventhhtj
080269e4 T _Z16GetHalSystemInfoR13HalSystemInfo
0803babc T _Z16HAL_Uninitializev
08046078 T _Z16I2C_Uninitializev
080462ac T _Z16Ink_Uninitializev
08066e50 T _Z16InterruptRecordsv
08027f80 T _Z16LCD_Uninitializev
08066e44 T _Z16LinkMRUArraySizev
0802853c T _Z16MAC_UnInitializev
0802935c T _Z16MFUpdate_InstalljPhi
08066e48 T _Z16PayloadArraySizev
08048874 T _Z16Piezo_Initializev
0803539c T _Z16Radio_Handler_LRjjPv
0804f338 T _Z16SetResult_doubleR17CLR_RT_StackFramed
0804f2d4 T _Z16SetResult_UINT16R17CLR_RT_StackFramet
0804f2ec T _Z16SetResult_UINT32R17CLR_RT_StackFramej
0804f304 T _Z16SetResult_UINT64R17CLR_RT_StackFramey
08039ea8 T _Z16si446x_fifo_infoh
08039f7c T _Z16si446x_func_infov
08038934 T _Z16si446x_hal_sleeph
08039ab8 T _Z16si446x_part_infov
0803b568 T _Z16Time_DaysInMonthiiPi
0803beec T _Z16USART_Initializeiiiiii
0803cfa8 T _Z16USB_Uninitializei
0803d450 T _Z16VirtTimer_Changehjjjh
0803b4cc T _Z16Watchdog_Disablev
0804bd40 T _Z17CLR_DebuggerBreakv
08029b9c T _Z17CPU_JTAG_Attachedv
08047df4 T _Z17CPU_SPI_WriteByteRK17SPI_CONFIGURATIONh
0802a790 T _Z17CPU_USART_GetPinsiRjS_S_S_
080267c8 T _Z17DebuggerPort_ReadiPcj
08027e00 T _Z17Events_Initializev
08046efc T _Z17GPIO_ConfigurePinP12GPIO_TypeDeft16GPIOMode_TypeDef17GPIOSpeed_TypeDef
08066e4c T _Z17InlineBufferCountv
0802863c T _Z17MAC_EnqueueToSendthPvt
080282a0 T _Z17MAC_GetNextPacketPPh
080292bc T _Z17MFUpdate_ValidatejPhi
08044a24 T _Z17SetCompareHandlerPv
08039204 T _Z17si446x_hal_cca_mshj
0803b518 T _Z17Time_GetLocalTimev
0803b53c T _Z17Time_ToSystemTimexP10SYSTEMTIME
0803b4e4 T _Z17Time_Uninitializev
0803b4d0 T _Z17Watchdog_ResetCpuv
08044c00 T _Z18Battery_Initializev
0803fc70 T _Z18Buttons_Initializev
08044bec T _Z18Charger_Initializev
080473a8 T _Z18CPU_GPIO_PinIsBusyj
08029f58 T _Z18CPU_Radio_TurnOnRxh
08047be4 T _Z18CPU_SPI_Initializev
08047df0 T _Z18CPU_SPI_PortsCountv
080273dc T _Z18CPU_TicksPerSecondt
08026e64 T _Z18csmaReceiveHandlerPvt
08026d78 T _Z18csmaSendAckHandlerPvt11NetOpStatush
080489f8 T _Z18CustomHeapLocationRPhRj
080267fc T _Z18DebuggerPort_Flushi
08026730 T _Z18DebuggerPort_WriteiPKcj
08044c44 T _Z18Gesture_Initializev
08071e04 T _Z18getCountOverTargetv
0803b6f8 T _Z18hal_snprintf_floatPcjPKcf
080353b4 T _Z18ISR_REALTIME_TIMERPv
08027f94 T _Z18LCD_GetOrientationv
08029208 T _Z18MFUpdate_AddPacketjiPhiS_i
0803a24c T _Z18Network_Initializev
0802ac64 T _Z18OMACReceiveHandlerPvt
0802a980 T _Z18OMACSendAckHandlerPvt11NetOpStatush
08048878 T _Z18Piezo_Uninitializev
08039920 T _Z18radio_comm_GetResphPh
08039684 t _Z18radio_comm_GetResphPh.constprop.13
0803971c t _Z18radio_comm_GetResphPh.constprop.14
080397b0 t _Z18radio_comm_GetResphPh.constprop.15
080399b4 T _Z18radio_comm_PollCTSv
08039880 T _Z18si446x_get_ph_pendv
08038464 T _Z18si446x_hal_send_tshPvtj
080364e8 t _Z18si446x_packet_sendhPhhjih.part.11
080488c4 T _Z18SimpleHeap_ReleasePv
0803a254 T _Z18SOCKETS_Initializei
0803a270 T _Z18SOCKETS_IsUsingSsli
08025180 T _Z18SUPPORT_ComputeCRCPKvij
0803cf9c T _Z18USART_Managed_ReadiPcj
0803c040 T _Z18USART_Uninitializei
0803d6e0 T _Z18VirtTimer_GetTicksh
0803d18c T _Z18VirtTimer_SetTimerhjjjjPFvPvEh
0806e36c T _Z18VirtualKey_GetPinsj
080451e4 T _Z19AD_GetPinForChannel14ANALOG_CHANNEL
08044c14 T _Z19Battery_TemperatureRi
08046ed4 T _Z19CPU_GPIO_Attributesj
08046f18 T _Z19CPU_GPIO_DisablePinj13GPIO_RESISTORj13GPIO_ALT_MODE
08047420 T _Z19CPU_GPIO_GetPinsMapPhj
08046e38 T _Z19CPU_GPIO_Initializev
080473d0 T _Z19CPU_GPIO_ReservePinjj
0803a274 T _Z19CPU_INTC_Initializev
08029fa0 T _Z19CPU_Radio_TurnOffRxh
         U _Z19CPU_USB_ProtectPinsij
0806ac9c T _Z19DA_GetPinForChannel10DA_CHANNEL
08027f38 T _Z19Events_SetBoolTimerPjj
08027e1c T _Z19Events_Uninitializev
0803b8d4 T _Z19HAL_EnterBooterModev
0803b71c T _Z19hal_snprintf_doublePcjPKcd
08027d34 T _Z19HAL_Time_Initializev
08027d74 T _Z19HAL_Time_SetComparey
08029b3c T _Z19ID_GetSerialNumbersR18OEM_SERIAL_NUMBERS
08027f90 T _Z19LCD_GetBitsPerPixelv
08028044 T _Z19MAC_GetMsgIdWithPtrP23IEEE802_15_4_Message_t2
080286a8 T _Z19MAC_GetNeighborListPt
0802858c T _Z19MAC_SendTimeStampedthPvtj
08028b34 T _Z19MFUpdate_Initializev
08028bac T _Z19MFUpdate_InitUpdatePKcR14MFUpdateHeader
0804886c T _Z19PalEvent_Initializev
08039e64 T _Z19si446x_change_state10si_state_t
08039860 T _Z19si446x_get_afc_infov
08039d04 T _Z19si446x_get_propertyhhh
08038c60 T _Z19si446x_hal_tx_powerhi
080398ec T _Z19si446x_read_rx_fifohPh
08039da8 T _Z19si446x_set_propertyhhiz
08048974 T _Z19SimpleHeap_Allocatej
0803b57c T _Z19Time_AccDaysInMonthiiPi
0803b558 T _Z19Time_FromSystemTimePK10SYSTEMTIME
0803b530 T _Z19Time_GetMachineTimev
0803c498 T _Z19USART_AddToRxBufferiPcj
0803c78c T _Z19USART_CloseAllPortsv
0803c878 T _Z19USART_DiscardBufferij
0803b5b0 T _Z19Utility_SafeSprintfRPcRjPKcz
08044be0 T _Z20BackLight_Initializev
08044c04 T _Z20Battery_Uninitializev
0803fc74 T _Z20Buttons_Uninitializev
08044bf0 T _Z20Charger_Uninitializev
08029bac T _Z20CPU_ChangePowerLevel11POWER_LEVEL
08047414 T _Z20CPU_GPIO_GetDebouncev
0804741c T _Z20CPU_GPIO_GetPinCountv
0804732c T _Z20CPU_GPIO_GetPinStatej
08047418 T _Z20CPU_GPIO_SetDebouncex
08047378 T _Z20CPU_GPIO_SetPinStatejj
08029ce4 T _Z20CPU_Radio_GetAddressh
08029bf0 T _Z20CPU_Radio_InitializeP17RadioEventHandlerhhh
08029e70 T _Z20CPU_Radio_SendStrobeht
08029d2c T _Z20CPU_Radio_SetAddressht
08047c50 T _Z20CPU_SPI_Uninitialize17SPI_CONFIGURATION
08047c0c T _Z20CPU_SPI_Uninitializev
08027188 T _Z20CPU_Timer_InitializetjjPFvPvE
080271f8 T _Z20CPU_Timer_SetComparety
0802a478 T _Z20CPU_USART_Initializeiiiiii
0802a78c T _Z20CPU_USART_PortsCountv
08027ea0 T _Z20Events_WaitForEventsjjj
08044c4c T _Z20Gesture_Uninitializev
08027d4c T _Z20HAL_Time_CurrentTimev
08027d64 T _Z20HAL_Time_TicksToTimey
0804797c T _Z20I2C_Internal_GetPinsRjS_
08046210 T _Z20I2C_XAction_SetStateP15I2C_HAL_XACTIONh
0804f088 T _Z20Interop_Marshal_INT8RK17CLR_RT_StackFramejRa
08028e48 T _Z20MFUpdate_AuthCommandjjPhiS_Ri
08028f24 T _Z20MFUpdate_GetPropertyjPKcPhPi
08028f80 T _Z20MFUpdate_SetPropertyjPKcPhi
0803a250 T _Z20Network_Uninitializev
0803feb0 T _Z20PublicDataRxCallbackPv
080409e4 T _Z20PublicDataTxCallbackPv
0806e364 T _Z20PWM_GetPinForChannel11PWM_CHANNEL
08037758 T _Z20radio_spi_sel_assertv
080398b8 T _Z20si446x_write_tx_fifohPh
0803a258 T _Z20SOCKETS_Uninitializei
0803a26c T _Z20SOCKETS_UpgradeToSsliPKhjS0_jPKc
0806acbc T _Z20SSL_ParseCertificatePKcjS0_P13_X509CertData
0803b590 T _Z20Utility_SafeSprintfVRPcRjPKcSt9__va_list
0803cfc4 T _Z20VirtTimer_Initializev
0804ac38 T _Z20VirtualTimerCallbackPv
080457a8 T _Z21AD_ConfigureBatchModePtjjPFvPvES0_
080202b4 T _Z21ApplicationEntryPointv
08044c2c T _Z21Battery_Configurationv
08044c24 T _Z21Battery_StateOfChargeRh
08046e48 T _Z21CPU_GPIO_Uninitializev
08047f34 T _Z21CPU_SPI_ReadWriteByteRK17SPI_CONFIGURATIONh
08047ec8 T _Z21CPU_SPI_WriteReadByteRK17SPI_CONFIGURATIONh
08027368 T _Z21CPU_Timer_GetMaxTicksh
0804f49c T _Z21GetAssemblyNativeDataPKc
08027d40 T _Z21HAL_Time_Uninitializev
0804f0b0 T _Z21Interop_Marshal_floatRK17CLR_RT_StackFramejRf
0804f09c T _Z21Interop_Marshal_INT32RK17CLR_RT_StackFramejRi
0804f04c T _Z21Interop_Marshal_UINT8RK17CLR_RT_StackFramejRh
08028848 T _Z21MAC_GetNeighborStatustPh
08028988 T _Z21MACLayer_UnInitializev
08028eb8 T _Z21MFUpdate_AuthenticatejPhi
08030b34 T _Z21NeighborChangeHandlers
08048870 T _Z21PalEvent_Uninitializev
080445a0 T _Z21PublicBeaconNCallbackPv
0806e550 T _Z21ReceiveDoneCallbackFnPvt
08039bc4 T _Z21si446x_get_int_statushhh
08039890 T _Z21si446x_get_modem_pendv
08048898 T _Z21SimpleHeap_InitializePvj
0803d95c T _Z21VirtTimer_GetMaxTicksh
0803d594 T _Z21VirtTimer_TicksToTimehy
0803b4d4 T _Z21Watchdog_ResetCounterv
08044be4 T _Z22BackLight_Uninitializev
08044bfc T _Z22Charger_SetTemperatures
080273a0 T _Z22CPU_GetDriftParametersPiS_Px
08029d88 T _Z22CPU_Radio_SetRadioNamea
08029c88 T _Z22CPU_Radio_UnInitializeh
080482e0 T _Z22CPU_SPI_nWrite8_nRead8RK17SPI_CONFIGURATIONPhiS2_ii
08027280 T _Z22CPU_Timer_CurrentTickst
0802a698 T _Z22CPU_USART_Uninitializei
08046214 T _Z22I2C_XAction_CheckStateP15I2C_HAL_XACTIONh
08046280 T _Z22I2C_XActionUnit_IsReadP20I2C_HAL_XACTION_UNIT
0804f0c4 T _Z22Interop_Marshal_doubleRK17CLR_RT_StackFramejRd
0804f060 T _Z22Interop_Marshal_UINT16RK17CLR_RT_StackFramejRt
0804f074 T _Z22Interop_Marshal_UINT32RK17CLR_RT_StackFramejRj
08027f84 T _Z22LCD_WriteFormattedCharh
0802879c T _Z22MAC_GetMACNeighborListPt
0802824c T _Z22MAC_GetPacketWithIndexPPhht
0802e730 T _Z22PublicTimeSyncCallbackPv
0802a918 T _Z22PushToUpperLayerHelperPv
08026b70 T _Z22SendFirstPacketToRadioPv
08039ca4 T _Z22si446x_get_packet_infohts
080382d8 T _Z22si446x_hal_get_addressh
080382f4 T _Z22si446x_hal_set_addressht
08038f40 T _Z22si446x_hal_set_channelhi
08039844 T _Z22si446x_set_debug_printPFviPKczEj
0803b524 T _Z22Time_GetTimeZoneOffsetv
0804ac14 T _Z22TimeService_Initializev
0803cc5c T _Z22USART_ConnectEventSinkiiPvPFvS_jEPS_
0803da94 T _Z22Watchdog_GetSetEnabledjj
0803da98 T _Z22Watchdog_GetSetTimeoutij
0803daa0 T _Z22Watchdog_LastOccurenceRxS_RjS0_j
0803df50 T _Z23BlockStorage_AddDevicesv
08046fcc T _Z23CPU_GPIO_EnableInputPinjjPFvjjPvE13GPIO_INT_EDGE13GPIO_RESISTOR
08027538 T _Z23CPU_MicrosecondsToTicksjt
080274d8 T _Z23CPU_MicrosecondsToTicksyt
0802744c T _Z23CPU_MillisecondsToTicksjt
08029e28 T _Z23CPU_Radio_ChangeChannelhi
08029de0 T _Z23CPU_Radio_ChangeTxPowerhi
08027480 T _Z23CPU_TicksToMicrosecondsjt
08026670 T _Z23DebuggerPort_Initializei
080268ac T _Z23DebuggerPort_IsUsingSsli
08071d6c T _Z23getAbsoluteDisplacementi
08047730 T _Z23I2C_Internal_Initializev
08037770 T _Z23radio_spi_sel_no_assertv
080398a0 T _Z23si446x_get_current_rssiv
08039874 T _Z23si446x_get_latched_rssiv
08039ef4 T _Z23si446x_get_modem_statush
08038170 T _Z23si446x_hal_uninitializeh
080202e0 T _Z23Solution_GetReleaseInfoR13MfReleaseInfo
0803b5dc T _Z23Time_TimeSpanToStringExRKxRPcRj
0803c324 T _Z23USART_AddCharToRxBufferic
0803bd94 T _Z23USART_InitializeManagediiiiii
0803da9c T _Z23Watchdog_GetSetBehavior17Watchdog_Behaviorj
0804561c T _Z24AD_GetCallbacksPerSecondv
0804a4d8 T _Z24CPU_GetUncachableAddressj
08047198 T _Z24CPU_GPIO_EnableInputPin2jjPFvjjPvES_13GPIO_INT_EDGE13GPIO_RESISTOR
08046f80 T _Z24CPU_GPIO_EnableOutputPinjj
0803a288 T _Z24CPU_INTC_InterruptEnablej
08029f3c T _Z24CPU_Radio_PreloadMessagePht
0804807c T _Z24CPU_SPI_nWrite16_nRead16RK17SPI_CONFIGURATIONPtiS2_ii
0803b7c4 T _Z24HAL_AddSoftRebootHandlerPFvvE
08047930 T _Z24I2C_Internal_XActionStopv
080547cc T _Z24Interop_Marshal_StoreRefR17CLR_RT_StackFramePvj
0806e5a8 T _Z24ManagedSendAckCallbackFnPvt11NetOpStatush
080391f8 T _Z24si446x_hal_set_RadioTypea
0803a268 T _Z24SOCKETS_CloseConnectionsv
0804ac1c T _Z24TimeService_UnInitializev
0804bd08 T _Z25CLR_RetrieveCurrentMethodRjS_
08029be0 T _Z25CPU_IsSoftRebootSupportedv
08029d78 T _Z25CPU_Radio_GetRadioAckTypev
08026a24 T _Z25csmaRadioInterruptHandler14RadioInterruptPv
080266ec T _Z25DebuggerPort_Uninitializei
08026850 T _Z25DebuggerPort_UpgradeToSslij
08035700 T _Z25GenerateSoftwareInterruptv
0804619c T _Z25I2C_InitializeTransactionP15I2C_HAL_XACTIONR22I2C_USER_CONFIGURATIONPP20I2C_HAL_XACTION_UNITj
08047978 T _Z25I2C_Internal_GetClockRatejRhS_
08047818 T _Z25I2C_Internal_Uninitializev
08047880 T _Z25I2C_Internal_XActionStartP15I2C_HAL_XACTIONb
08028b00 T _Z25MFUpdate_EnumerateUpdatesPji
0806e57c T _Z25NeighborChangedCallbackFns
0802a944 T _Z25OMACRadioInterruptHandler14RadioInterruptPv
08066448 T _Z25SaveNativeEventToHALQueueP38CLR_RT_HeapBlock_NativeEventDispatcherjj
080451f4 T _Z26AD_ConfigureContinuousModePtjjPFvPvES0_
0803a278 T _Z26CPU_INTC_ActivateInterruptjPFvPvES_
08029ef4 T _Z26CPU_Radio_Send_TimeStampedhPvtj
08046240 T _Z26I2C_XActionUnit_CopyBufferP20I2C_HAL_XACTION_UNITPhj
08028278 T _Z26MAC_GetPacketSizeWithIndexPht
080290b4 T _Z26MFUpdate_GetMissingPacketsjPjPi
0803c814 T _Z26USART_BytesInManagedBufferij
0803d000 T _Z26VirtTimer_SetOrChangeTimerhjjjjPFvPvEh
080268c4 T _Z27CPU_InitializeCommunicationv
08026830 T _Z27DebuggerPort_IsSslSupportedi
08027dd4 T _Z27HAL_Time_GetDriftParametersPiS_Px
08027dd8 T _Z27HAL_Time_Sleep_MicroSecondsj
08046220 T _Z27I2C_XAction_TransactedBytesP15I2C_HAL_XACTION
0804f224 T _Z27Interop_Marshal_float_ARRAYRK17CLR_RT_StackFramejR17CLR_RT_TypedArrayIfE
0804f1bc T _Z27Interop_Marshal_INT16_ARRAYRK17CLR_RT_StackFramejR17CLR_RT_TypedArrayIsE
0804f1f0 T _Z27Interop_Marshal_INT32_ARRAYRK17CLR_RT_StackFramejR17CLR_RT_TypedArrayIiE
0804f0ec T _Z27Interop_Marshal_UINT8_ARRAYRK17CLR_RT_StackFramejR17CLR_RT_TypedArrayIhE
080547e8 T _Z27Interop_Marshal_UINT8_ByRefRK17CLR_RT_StackFramePvjRPh
0806acb8 T _Z27LargeBuffer_ManagedToNativetPKhj
0806acb4 T _Z27LargeBuffer_NativeToManagedtPhj
0803ff94 T _Z27PublicDataRxSendAckCallbackPv
08036180 T _Z27PublicSchedulerTaskHandler1Pv
08039d58 T _Z27si446x_request_device_statev
0803d818 T _Z27VirtTimer_SleepMicrosecondshj
0803a284 T _Z28CPU_INTC_DeactivateInterruptj
08027304 T _Z28CPU_Timer_Sleep_MicroSecondsjt
0804f258 T _Z28Interop_Marshal_double_ARRAYRK17CLR_RT_StackFramejR17CLR_RT_TypedArrayIdE
0804f120 T _Z28Interop_Marshal_UINT16_ARRAYRK17CLR_RT_StackFramejR17CLR_RT_TypedArrayItE
0804f154 T _Z28Interop_Marshal_UINT32_ARRAYRK17CLR_RT_StackFramejR17CLR_RT_TypedArrayIjE
0804f188 T _Z28Interop_Marshal_UINT64_ARRAYRK17CLR_RT_StackFramejR17CLR_RT_TypedArrayIyE
08028670 T _Z28MAC_EnqueueToSendTimeStampedthPvtj
08039e2c T _Z28si446x_start_rx_fast_channelh
0803c6e4 T _Z28USART_RemoveCharFromTxBufferiRc
08026960 T _Z29CPU_UninitializeCommunicationv
0802a798 T _Z29CPU_USART_GetBaudrateBoundaryiRjS_
0802a7a4 T _Z29CPU_USART_IsBaudrateSupportediRj
0802a700 T _Z29CPU_USART_WriteCharToTxBufferih
080461c0 T _Z29I2C_InitializeTransactionUnitP20I2C_HAL_XACTION_UNITPhS1_jj
08035488 T _Z29ISR_SoftwareInterrupt_HandlerPv
0805c9e8 W _Z29TINYCLR_READ_UNALIGNED_UINT32IjEvRT_RPKh
0804562c T _Z30AD_SetPeriodicSamplingIntervaldd
08048218 T _Z30CPU_SPI_Xaction_nWrite8_nRead8R13SPI_XACTION_8
080289c8 T _Z30MFUpdate_InitializeFromStoragev
08066514 T _Z31CleanupNativeEventsFromHALQueueP38CLR_RT_HeapBlock_NativeEventDispatcher
0802a030 T _Z31CPU_Radio_ClearChannelAssesmenth
0802a078 T _Z31CPU_Radio_ClearChannelAssesmenthj
0806acb0 T _Z31LargeBuffer_GetNativeBufferSizet
08045f60 T _Z32AD_ConfigureBatchModeDualChannelPtS_jjPFvPvES0_
08047fa8 T _Z32CPU_SPI_Xaction_nWrite16_nRead16R14SPI_XACTION_16
0804ac24 T _Z32HAL_CONTINUATION_ExtendedExecutePv
08028024 T _Z33MAC_DeletePacketWithIndexInternalt
08047448 T _Z34CPU_GPIO_GetSupportedResistorModesj
080281f0 T _Z34MAC_ChangeOwnerShipOfElementwIndext11BufferOwner
08035e10 T _Z34PublicSchedulerTaskHandlerFailsafePv
080398ac T _Z34si446x_request_device_state_shadowv
080451ec T _Z35AD_GetAvailablePrecisionsForChannel14ANALOG_CHANNELPiRj
0804744c T _Z35CPU_GPIO_GetSupportedInterruptModesj
0806aca8 T _Z35DA_GetAvailablePrecisionsForChannel10DA_CHANNELPiRj
08035dac T _Z35PublicSchedulerTaskHandlerRadioStopPv
0802a794 T _Z36CPU_USART_SupportNonStandardBaudRatei
08045ba0 T _Z37AD_ConfigureContinuousModeDualChannelPtS_jjPFvPvES0_
0802a764 T _Z37CPU_USART_RxBufferFullInterruptEnableij
0802a744 T _Z37CPU_USART_TxBufferEmptyInterruptStatei
0804f360 T _Z37Interop_Marshal_RetrieveManagedObjectR17CLR_RT_StackFrame
0806bb70 T _Z37NativeToManagedUpdaterProgressHandlerjtht
0802a71c T _Z38CPU_USART_TxBufferEmptyInterruptEnableij
08027de8 T _Z44HAL_Time_Sleep_MicroSeconds_InterruptEnabledj
08047bbc T _Z5Resetv
08047bb4 T _Z5Sleepv
080451c0 T _Z7AD_Read14ANALOG_CHANNEL
08029bd0 T _Z8CPU_Haltv
0806ac74 T _Z8DA_Write10DA_CHANNELi
08071d94 T _Z8getRangei
08029634 T _Z8ISR_TIM1Pv
0802977c T _Z8ISR_TIM2Pv
080285e8 T _Z8MAC_SendthPvt
08047bdc T _Z8Shutdownv
0803cfb8 T _Z8USB_ReadiPcj
0802030c T _Z9ClrRebootv
08029bd8 T _Z9CPU_Resetv
08029bc0 T _Z9CPU_Sleep11SLEEP_LEVELy
08047a78 T _Z9Low_Powerv
08028580 T _Z9MAC_GetIDv
08047af8 T _Z9Mid_Powerv
08074e00 T _Z9minSortUpP11HeapTrack_ti
08047a30 T _Z9PowerInitv
080356dc T _Z9RT_Changejj
0803cfbc T _Z9USB_Flushi
0803cfb4 T _Z9USB_WriteiPKcj
20007908 b _ZGVZN10Data_Store11searchForIDEjE17prevBlockSearched
20003004 b _ZGVZN8OMACType14ReceiveHandlerEP23IEEE802_15_4_Message_t2iE2pt
200078f4 b _ZL10absOffsetI
20007902 b _ZL10absOffsetQ
0807e8cc t _ZL10c_CRCTable
080208b4 t _ZL10FillValuesP16CLR_RT_HeapBlockRPN16CLR_DBG_Commands15Debugging_ValueEjS0_P23CLR_RT_TypeDef_Instance
20003c70 b _ZL10g_UserData
2000785c b _ZL10lastUnwrap
20007854 b _ZL10medianRawQ
20003e80 b _ZL10modem_pend
20003df0 b _ZL10radio_lock
2000134c d _ZL10realTimeID
08036868 t _ZL10rx_cont_doPv
20003de8 b _ZL10rx_msg_ptr
08036468 t _ZL10tx_cont_doPv
20003cd8 b _ZL10tx_msg_ptr
0803965c t _ZL11blank_debugiPKcz
20003e81 b _ZL11chip_status
20007860 b _ZL11codeVersion
20003e50 b _ZL11ctsWentHigh
20003e56 b _ZL11freq_offset
200053e8 b _ZL11g_timeStamp
2000781c b _ZL11initialized
08036c44 t _ZL11int_cont_doPv
20007828 b _ZL11mOfnCounter
20003d64 b _ZL11rx_callback
20003cd4 b _ZL11tx_callback
0807f044 t _ZL12c_Update_app
0807f050 t _ZL12c_Update_phy
20003e83 b _ZL12current_rssi
20007740 b _ZL12g_sdUserData
20003e54 b _ZL12latched_rssi
20003e85 b _ZL12modem_status
200077f8 b _ZL12mOfnDetector
20003e10 b _ZL12rx_timestamp
20007858 b _ZL12unwrapMedian
0808794c t _ZL13c_WhiteSpaces
20003e84 b _ZL13current_state
20007738 b _ZL13g_adcUserData
2000783c b _ZL13lastUnwrapMax
0807f24c t _ZL13method_lookup
080879e0 t _ZL13method_lookup
08088288 t _ZL13method_lookup
08088978 t _ZL13method_lookup
08087be8 t _ZL13method_lookup
08086a90 t _ZL13method_lookup
08088100 t _ZL13method_lookup
08087c84 t _ZL13method_lookup
0808869c t _ZL13method_lookup
08088738 t _ZL13method_lookup
08088afc t _ZL13method_lookup
20001a20 b _ZL13s_ClrSettings
20007820 b _ZL14lastUnwrapZero
0806abf0 t _ZL14PostUsartEventPvj
20007814 b _ZL14radarNoiseCtrl
20003cd0 b _ZL14si446x_channel
0807e104 t _ZL15c_Messaging_app
0807e110 t _ZL15c_Messaging_phy
0806d794 t _ZL15CleanupSDDriverP38CLR_RT_HeapBlock_NativeEventDispatcher
200078d4 b _ZL15countOverTarget
20003e88 b _ZL15LoggingCallback
08068238 t _ZL15SerializeObjectP16CLR_RT_HeapBlockPhRiS2_
08068544 t _ZL15SerializeObjectP16CLR_RT_HeapBlockPhRiS2_.constprop.10
08036338 t _ZL15si446x_leave_rx15radio_lock_id_t
200057a4 b _ZL15stm_power_state
20007838 b _ZL15unwrapMedianMax
20003cdc b _ZL16active_mac_index
0806d010 t _ZL16CleanupADCDriverP38CLR_RT_HeapBlock_NativeEventDispatcher
0806902c t _ZL16CleanupEventSinkP38CLR_RT_HeapBlock_NativeEventDispatcher
20003c80 b _ZL16debuggerAttached
200057d0 b _ZL16g_s_FirstCluster
20001594 d _ZL16IQRejectionToUse
200055c0 b _ZL16pin_reservations
20003c84 b _ZL16realtimeTimerCnt
20003eac b _ZL16s_rebootHandlers
0807edd8 t _ZL16s_UpdatePackages
20003e18 b _ZL16SI446X_pin_setup
20001598 d _ZL16targetSizeFilter
200077f0 b _ZL16unwrapMedianZero
20004adc b _ZL16use_com0_managed
080869d8 t _ZL17c_ExceptionLookup
08082c5c t _ZL17c_TypeIndexLookup
080680ec t _ZL17DeserializeObjectP16CLR_RT_HeapBlockPhRii
20007850 b _ZL17detectionFinished
08046630 t _ZL17EXTI0_IRQ_HANDLERPv
080467e0 t _ZL17EXTI1_IRQ_HANDLERPv
08046690 t _ZL17EXTI2_IRQ_HANDLERPv
08046700 t _ZL17EXTI3_IRQ_HANDLERPv
08046770 t _ZL17EXTI4_IRQ_HANDLERPv
20002fdc b _ZL17PORTS_IN_USE_MASK
20003c94 b _ZL17radio_si446x_spi2
2000159c d _ZL18adjustmentIQPeriod
200077e8 b _ZL18callbacksPerSecond
200053b8 b _ZL18callbacksPerSecond
0806ace4 t _ZL18Cleanup_Net_DriverP38CLR_RT_HeapBlock_NativeEventDispatcher
0806d770 t _ZL18InitializeSDDriverP38CLR_RT_HeapBlock_NativeEventDispatchery
08051670 t _ZL18local_FindFieldDefP15CLR_RT_AssemblyjjPKcS0_tR21CLR_RT_FieldDef_Index
2000592c b _ZL18s_PreHeapInitIndex
20003e58 b _ZL18si446x_debug_print
080362b4 t _ZL18si446x_debug_printiPKcz
080362d8 t _ZL18si446x_debug_printiPKcz.constprop.23
080362f8 t _ZL18si446x_debug_printiPKcz.constprop.24
08036308 t _ZL18si446x_debug_printiPKcz.constprop.25
08036318 t _ZL18si446x_debug_printiPKcz.constprop.26
08036328 t _ZL18si446x_debug_printiPKcz.constprop.27
200078e0 b _ZL19absoluteDisplEntire
20001438 d _ZL19adcPeriodicOnTimeUs
08046854 t _ZL19EXTI9_5_IRQ_HANDLERPv
0806cfb0 t _ZL19InitializeADCDriverP38CLR_RT_HeapBlock_NativeEventDispatchery
08068c54 t _ZL19InitializeEventSinkP38CLR_RT_HeapBlock_NativeEventDispatchery
20007824 b _ZL19windowOverThreshold
0807f28c t _ZL19wwf2_serial_numbers
20007840 b _ZL1M
20001434 d _ZL20adcPeriodicOffTimeUs
08082c54 t _ZL20c_MARKER_ASSEMBLY_V1
080504e8 t _ZL20FixReflectionForTypeRK16CLR_RT_HeapBlockRS_
20001590 d _ZL20initialAdjustmentCnt
200077e4 b _ZL20prevIQrejectionValue
20002f28 b _ZL20s_updatesInitialized
20002fb8 b _ZL20USART1_InitStructure
20002fc8 b _ZL20USART2_InitStructure
0806ab58 t _ZL21CleanupUsartErrorSinkP38CLR_RT_HeapBlock_NativeEventDispatcher
0804b290 t _ZL21CompareValues_NumericRK16CLR_RT_HeapBlockS1_bi
200078f8 b _ZL21displacementFirstHalf
0807f2f0 t _ZL21dotnow_serial_numbers
0806d790 t _ZL21EnableDisableSDDriverP38CLR_RT_HeapBlock_NativeEventDispatcherb
08046a88 t _ZL21EXTI15_10_IRQ_HandlerPv
0806acc0 t _ZL21Initialize_Net_DriverP38CLR_RT_HeapBlock_NativeEventDispatchery
200078a4 b _ZL21maxDisplacementEntire
200078c0 b _ZL21minDisplacementEntire
200078e4 b _ZL22absoluteDisplFirstHalf
080830b8 t _ZL22c_CLR_StringTable_Data
2000158c d _ZL22classifierTargetFilter
200078dc b _ZL22displacementSecondHalf
0806cfd0 t _ZL22EnableDisableADCDriverP38CLR_RT_HeapBlock_NativeEventDispatcherb
08068c64 t _ZL22EnableDisableEventSinkP38CLR_RT_HeapBlock_NativeEventDispatcherb
20003c90 b _ZL22g_RealTimeTimerEnabled
20003df4 b _ZL22int_defer_continuation
080289b8 t _ZL22MFUpdate_RebootHandlerv
200078b8 b _ZL23absoluteDisplSecondHalf
08080c78 t _ZL23CummulativeDaysForMonth
20001422 d _ZL24adcPeriodicOnTimeRunning
08080ce8 t _ZL24c_CLR_StringTable_Lookup
0807e0ec t _ZL24c_Messaging_Lookup_Reply
0806ace0 t _ZL24EnableDisable_Net_DriverP38CLR_RT_HeapBlock_NativeEventDispatcherb
20007730 b _ZL24g_ADC_Driver_Initialized
08088ae4 t _ZL24g_SDInteropDriverMethods
0806abbc t _ZL24InitializeUsartErrorSinkP38CLR_RT_HeapBlock_NativeEventDispatchery
200078c8 b _ZL24maxDisplacementFirstHalf
200078f0 b _ZL24minDisplacementFirstHalf
20003cb0 b _ZL24rx_callback_continuation
20003cc0 b _ZL24tx_callback_continuation
0806aac0 t _ZL25CleanupUsartDataEventSinkP38CLR_RT_HeapBlock_NativeEventDispatcher
08088ac0 t _ZL25g_AdcInteropDriverMethods
200078d8 b _ZL25maxDisplacementSecondHalf
200078fc b _ZL25minDisplacementSecondHalf
0807e120 t _ZL26c_Messaging_Lookup_Request
080353e8 t _ZL26CleanupRealTimeTimerDriverP38CLR_RT_HeapBlock_NativeEventDispatcher
08027d28 t _ZL26DebuggerPort_SSL_GetCACertPPhPj
200078e8 b _ZL26unwrappedPhaseCrossProduct
0806ab84 t _ZL27EnableDisableUsartErrorSinkP38CLR_RT_HeapBlock_NativeEventDispatcherb
0808827c t _ZL27g_CLR_MAC_MAC_DriverMethods
20005804 b _ZL27vtCallbackContinuationArray
0806bbac t _ZL28Cleanup_UpdateManager_DriverP38CLR_RT_HeapBlock_NativeEventDispatcher
08088660 t _ZL28g_CLR_CSMA_MAC_DriverMethods
08088684 t _ZL28g_CLR_OMAC_MAC_DriverMethods
0806ab24 t _ZL28InitializeUsartDataEventSinkP38CLR_RT_HeapBlock_NativeEventDispatchery
080371d4 t _ZL28si446x_spi2_handle_interruptjjPv
0803553c t _ZL29InitializeRealTimeTimerDriverP38CLR_RT_HeapBlock_NativeEventDispatchery
20007830 b _ZL29noiseRejectionPassedParameter
200078ac b _ZL29unwrappedPhaseCrossProductMax
08027d1c t _ZL30DebuggerPort_SSL_GetDeviceCertPPhPj
08027d14 t _ZL30DebuggerPort_SSL_GetTargetHostPPKc
200078a8 b _ZL30unwrappedPhaseCrossProductZero
0806aaec t _ZL31EnableDisableUsartDataEventSinkP38CLR_RT_HeapBlock_NativeEventDispatcherb
0806bb24 t _ZL31Initialize_UpdateManager_DriverP38CLR_RT_HeapBlock_NativeEventDispatchery
08035418 t _ZL32EnableDisableRealTimeTimerDriverP38CLR_RT_HeapBlock_NativeEventDispatcherb
080886f4 t _ZL33g_CLR_UpdateManager_DriverMethods
0806bb60 t _ZL34EnableDisable_UpdateManager_DriverP38CLR_RT_HeapBlock_NativeEventDispatcherb
08088258 t _ZL34g_CLR_Radio_802_15_4_DriverMethods
08027df8 t _ZL34local_Events_SetBoolTimer_CallbackPv
08080a38 t _ZL34STM32F10x_BlockRange_InternalFlash
0807f240 t _ZL35g_InteropRealTimeTimerDriverMethods
08080a80 t _ZL38STM32F10x_BlockRange_ExternalFlash_NOR
08080a24 t _ZL39STM32F10x_BlockRegionInfo_InternalFlash
08080a8c t _ZL43STM32F10x_BlockRegionInfo_ExternalFlash_NOR
08087c78 t _ZL45g_CLR_AssemblyNative_Microsoft_SPOT_EventSink
08088240 t _ZL59g_CLR_AssemblyNative_Microsoft_SPOT_Hardware_UsartErrorSink
08088228 t _ZL59g_CLR_AssemblyNative_Microsoft_SPOT_Hardware_UsartEventSink
200078ec b _ZL5prevI
200078b0 b _ZL5prevQ
20007864 b _ZL6dataID
20003dec b _ZL6isInit
20007844 b _ZL6radarI
20007818 b _ZL6radarQ
20003ce0 b _ZL6rx_msg
20003d68 b _ZL6tx_msg
080362a4 t _ZL7___LOADPVm
2000159a d _ZL7medianQ
20003e6d b _ZL7ph_pend
20003e70 b _ZL7Pro2Cmd
080362ac t _ZL8___STOREmPVm
200077f4 b _ZL8debugVal
200055d0 b _ZL8gpio_isr
20007862 b _ZL8IDNumber
200078d0 b _ZL8prevIMax
200078b4 b _ZL8prevQMax
20003e04 b _ZL8spi_lock
20003d60 b _ZL8tx_power
20003e82 b _ZL9chip_pend
20003c88 b _ZL9g_Context
200076f0 b _ZL9g_Context
20005400 b _ZL9gpio_parm
20003e6c b _ZL9ph_status
200078c4 b _ZL9prevIZero
200078bc b _ZL9prevQZero
20003e08 b _ZL9radioType
08039664 t _ZL9SI_ASSERTiPKc.part.0
20003e5c b _ZL9Si446xCmd
20007848 b _ZL9threshold
0804b8b8 T _ZN10CLR_Checks20VerifyArrayReferenceER16CLR_RT_HeapBlock
080732e0 T _ZN10Data_Store10compactLogEv
080740c4 T _ZN10Data_Store10getAddressEj
20007914 B _ZN10Data_Store10startCountE
080748bc T _ZN10Data_Store11DataStoreGCEv
080731a4 T _ZN10Data_Store11getDataTypeEj
08074404 T _ZN10Data_Store11readRawDataEPvS0_jj
08073ebc T _ZN10Data_Store11searchForIDEj
080743c4 T _ZN10Data_Store12createRecordEjjj
08073ba0 T _ZN10Data_Store12deleteRecordEj
08074748 T _ZN10Data_Store12getLastErrorEv
08073a18 T _ZN10Data_Store12readPointersEv
080744e8 T _ZN10Data_Store12writeRawDataEPvS0_jj
08074230 t _ZN10Data_Store13initDataStoreEPcP21_datastore_propertiesb.part.9
080748c0 T _ZN10Data_Store14EraseAllBlocksEv
08074958 T _ZN10Data_Store14returnLogPointEv
0807301c t _ZN10Data_Store15cyclicDataWriteEPvS0_j.part.7
08074938 T _ZN10Data_Store15returnFreeSpaceEv
0807386c T _ZN10Data_Store15traversePointerE22_persistence_directionPc
08073508 T _ZN10Data_Store16createAllocationEjPvjj
08074928 T _ZN10Data_Store16returnTotalSpaceEv
08073230 T _ZN10Data_Store17getAllocationSizeEj
08073238 T _ZN10Data_Store17getRecentRecordIDEv
08074920 T _ZN10Data_Store17maxAllocationSizeEv
08073ce8 T _ZN10Data_Store17readRecordinBlockEiiiPb
080730bc T _ZN10Data_Store18objectCountInBlockEi
08073b98 T _ZN10Data_Store19getCountOfRecordIdsEv
08073260 T _ZN10Data_Store21createDummyAllocationEi
080740f0 T _ZN10Data_Store27getRecordIDAfterPersistenceEPjtt
08074348 T _ZN10Data_Store4initEb
20007910 B _ZN10Data_Store8endCountE
0807474c T _ZN10Data_Store9DeleteAllEv
20001334 D _ZN10GlobalTime6leaderE
200037c0 B _ZN10GlobalTime6offsetE
08046004 T _ZN10I2C_Driver17CompletedCallbackEPv
08034170 T _ZN10RF231Radio10InitializeEP17RadioEventHandlerhh
08033668 T _ZN10RF231Radio10SendStrobeEt
08033fbc T _ZN10RF231Radio12UnInitializeEv
08033d30 T _ZN10RF231Radio13ChangeChannelEi
08033c14 T _ZN10RF231Radio13ChangeTxPowerEi
08034f58 T _ZN10RF231Radio15DownloadMessageEv
08035078 T _ZN10RF231Radio15HandleInterruptEv
080337cc T _ZN10RF231Radio16Send_TimeStampedEPvtj
08034108 T _ZN10RF231Radio17GpioPinInitializeEv
08033128 T _ZN10RF231Radio20Careful_State_ChangeE20radio_hal_trx_status
08034c20 T _ZN10RF231Radio21ClearChannelAssesmentEj
08034e90 T _ZN10RF231Radio21ClearChannelAssesmentEv
08032df4 t _ZN10RF231Radio26GetAverageOrMaxRSSI_countNEh.constprop.21
08033358 T _ZN10RF231Radio29Careful_State_Change_ExtendedE20radio_hal_trx_status
08033e50 T _ZN10RF231Radio4SendEPvt
0803390c T _ZN10RF231Radio5SleepEi
08032ef0 T _ZN10RF231Radio6WakeupEv
080335ec T _ZN10RF231Radio7PreloadEP23IEEE802_15_4_Message_t2t
08034a70 T _ZN10RF231Radio8TurnOnRxEv
08034b50 T _ZN10RF231Radio9TurnOffRxEv
0804a544 T _ZN10TimeDriver10GetUtcTimeEv
0804a4dc T _ZN10TimeDriver10InitializeEv
0804a558 T _ZN10TimeDriver10SetUtcTimeExb
0804a9a0 T _ZN10TimeDriver11DaysInMonthEiiPi
0804aaa0 T _ZN10TimeDriver11SafeSprintfERPcRjPKcz
0804a57c T _ZN10TimeDriver12GetLocalTimeEv
0804aa6c T _ZN10TimeDriver12SafeSprintfVERPcRjPKcSt9__va_list
0804a5bc T _ZN10TimeDriver12ToSystemTimeExP10SYSTEMTIME
0804a530 T _ZN10TimeDriver12UninitializeEv
20005800 B _ZN10TimeDriver13m_initializedE
0804a93c T _ZN10TimeDriver14AccDaysInMonthEiiPi
0804a7f0 T _ZN10TimeDriver14FromSystemTimeEPK10SYSTEMTIME
0804a5b8 T _ZN10TimeDriver14GetMachineTimeEv
0804aac4 T _ZN10TimeDriver16TimeSpanToStringERKxRPcRj
0804a59c T _ZN10TimeDriver17GetTimeZoneOffsetEv
080254b4 T _ZN10WP_Message10InitializeEP13WP_Controller
0802554c T _ZN10WP_Message12PrepareReplyERK9WP_PacketjjPh
080254e0 T _ZN10WP_Message14PrepareRequestEjjjPh
080255c0 T _ZN10WP_Message14ReplyBadPacketEj
080254d8 T _ZN10WP_Message16PrepareReceptionEv
08025650 T _ZN10WP_Message7ProcessEv
08024c98 T _ZN11CLR_RT_DUMP15GETERRORMESSAGEEi
08024c44 T _ZN11CLR_RT_DUMP22POST_PROCESS_EXCEPTIONER16CLR_RT_HeapBlock
08024bd0 T _ZN11CLR_RT_DUMP4TYPEERK20CLR_RT_TypeDef_Index
08024c0c T _ZN11CLR_RT_DUMP6METHODERK22CLR_RT_MethodDef_Index
080250cc T _ZN11CLR_RT_DUMP9EXCEPTIONER17CLR_RT_StackFrameR16CLR_RT_HeapBlock
0806e514 T _ZN11SDIO_Driver10EraseBlockEjj
0806e45c T _ZN11SDIO_Driver10InitializeEPFv12DeviceStatusE
0806e528 T _ZN11SDIO_Driver10WriteBlockEPhjt
0806e374 T _ZN11SDIO_Driver12SDIO_HANDLEREPv
0806e53c T _ZN11SDIO_Driver9ReadBlockEPhjt
08044a28 T _ZN11Time_Driver10InitializeEv
08044bd8 T _ZN11Time_Driver10Sleep_uSecEj
08044b0c T _ZN11Time_Driver11CurrentTimeEv
08044b04 T _ZN11Time_Driver11TicksToTimeEy
08044a9c T _ZN11Time_Driver12CurrentTicksEv
08044a78 T _ZN11Time_Driver12UninitializeEv
08044aac T _ZN11Time_Driver15SetCompareValueEy
200053b0 B _ZN11Time_Driver8maxTicksE
08044aa4 T _ZN11Time_Driver9StopTimerEv
08065e34 T _ZN12CLR_GFX_Font14CreateInstanceER16CLR_RT_HeapBlockPKhP15CLR_RT_Assembly
0802e73c T _ZN12OMACTimeSync10InitializeEhh
0802ec2c T _ZN12OMACTimeSync12ExecuteEventEv
0802ec4c T _ZN12OMACTimeSync12FailsafeStopEv
0802f678 T _ZN12OMACTimeSync12ReceiveTSReqEtP18TimeSyncRequestMsg
0802f688 T _ZN12OMACTimeSync13CreateMessageEP11TimeSyncMsgyb
0802ec54 T _ZN12OMACTimeSync4SendEt
0802f690 T _ZN12OMACTimeSync7ReceiveEtP11TimeSyncMsgyy
0802efe0 T _ZN12OMACTimeSync9NextEventEv
0803a244 T _ZN12SmartPtr_IRQ12ForceEnabledEPv
0803a23c T _ZN12SmartPtr_IRQ13ForceDisabledEPv
0803a210 T _ZN12SmartPtr_IRQ5ProbeEv
0803a1e0 T _ZN12SmartPtr_IRQ7AcquireEv
0803a1f8 T _ZN12SmartPtr_IRQ7ReleaseEv
0803a22c T _ZN12SmartPtr_IRQ8GetStateEPv
0803a1c0 T _ZN12SmartPtr_IRQC1EPv
0803a1c0 T _ZN12SmartPtr_IRQC2EPv
0803a1d4 T _ZN12SmartPtr_IRQD1Ev
0803a1d4 T _ZN12SmartPtr_IRQD2Ev
0803ce5c T _ZN12USART_Driver11ManagedReadEiPcj
0803ccbc T _ZN12USART_Driver4ReadEiPcj
0803bd3c t _ZN12USART_Driver8SetEventEij.part.3
20004cb0 B _ZN12VirtualTimer13isInitializedE
080246f0 T _ZN13CLR_Messaging10InitializeEiPK34CLR_Messaging_CommandHandlerLookupjS2_jPv
0802484c T _ZN13CLR_Messaging10PurgeCacheEv
08024150 T _ZN13CLR_Messaging11App_ReleaseEPvP10WP_Message
0802463c T _ZN13CLR_Messaging14CreateInstanceEv
080247a8 T _ZN13CLR_Messaging14DeleteInstanceEv
08024214 T _ZN13CLR_Messaging14Messaging_SendEP10WP_MessagePv
080249a4 T _ZN13CLR_Messaging14ReplyToCommandEP10WP_Messagebb
0802491c T _ZN13CLR_Messaging14ReplyToCommandEP10WP_MessagebbPvi
080241a8 T _ZN13CLR_Messaging15Messaging_QueryEP10WP_MessagePv
08024350 T _ZN13CLR_Messaging15Messaging_ReplyEP10WP_MessagePv
0802483c T _ZN13CLR_Messaging15ProcessCommandsEv
080240f8 T _ZN13CLR_Messaging16Phy_ReceiveBytesEPvRPhRj
0802412c T _ZN13CLR_Messaging17App_ProcessHeaderEPvP10WP_Message
08024488 T _ZN13CLR_Messaging18App_ProcessPayloadEPvP10WP_Message
08024168 T _ZN13CLR_Messaging19Phy_TransmitMessageEPvPK10WP_Message
080247f8 T _ZN13CLR_Messaging7CleanupEv
08024908 T _ZN13CLR_Messaging9SendEventEjjPhj
08056bec T _ZN13CLR_RT_Memory18Allocate_And_EraseEjj
0804f430 T _ZN13CLR_RT_Memory5ResetEv
0804f440 T _ZN13CLR_RT_Memory7ReleaseEPv
08056c6c T _ZN13CLR_RT_Memory8AllocateEjj
0804ffc0 T _ZN13CLR_RT_Random10InitializeEi
0804ffa8 T _ZN13CLR_RT_Random10InitializeEv
08050024 T _ZN13CLR_RT_Random10NextDoubleEv
0804ffc4 T _ZN13CLR_RT_Random4NextEv
08050098 T _ZN13CLR_RT_Random9NextBytesEPhj
0805ca28 T _ZN13CLR_RT_Thread10Execute_ILEP17CLR_RT_StackFrame
08051bd4 t _ZN13CLR_RT_Thread11FindEhBlockEP17CLR_RT_StackFramePKhS3_R23CLR_RT_ExceptionHandlerb.constprop.159
08059500 T _ZN13CLR_RT_Thread13Execute_InnerEv
08055a98 T _ZN13CLR_RT_Thread14CreateInstanceEiiRPS_j
08053208 T _ZN13CLR_RT_Thread15DestroyInstanceEv
08059378 T _ZN13CLR_RT_Thread16ProcessExceptionEv
080501e8 T _ZN13CLR_RT_Thread17CanThreadBeReusedEv
0804b680 t _ZN13CLR_RT_Thread17ReleaseWhenDeadExEv.part.125
080529a4 T _ZN13CLR_RT_Thread18OnThreadTerminatedEv
08059bdc T _ZN13CLR_RT_Thread19RTOS_Thread_ExecuteEv
0804ce44 T _ZN13CLR_RT_Thread21ProtectFromGCCallbackEPv
0805c8dc T _ZN13CLR_RT_Thread22Execute_DelegateInvokeEP17CLR_RT_StackFrame
0805524c T _ZN13CLR_RT_Thread22PushThreadProcDelegateEP25CLR_RT_HeapBlock_Delegate
08055404 T _ZN13CLR_RT_Thread23ProcessException_Phase1Ev
080590e4 T _ZN13CLR_RT_Thread23ProcessException_Phase2Ev
08059c80 T _ZN13CLR_RT_Thread26ProcessException_EndFilterEv
08059448 T _ZN13CLR_RT_Thread27ProcessException_EndFinallyEv
08050204 T _ZN13CLR_RT_Thread42ProcessException_FilterPseudoFrameCopyVarsEP17CLR_RT_StackFrameS1_
08052e14 T _ZN13CLR_RT_Thread5AbortEv
0804ff44 T _ZN13CLR_RT_Thread6PushEHEv
08052c0c T _ZN13CLR_RT_Thread6ResumeEv
08059728 T _ZN13CLR_RT_Thread7ExecuteEv
08052bec T _ZN13CLR_RT_Thread7SuspendEv
0804e5b4 T _ZN13CLR_RT_Thread8RelocateEv
08052a34 T _ZN13CLR_RT_Thread9PassivateEv
08052c2c T _ZN13CLR_RT_Thread9TerminateEv
080223f8 T _ZN13MfReleaseInfo4InitERS_ttttPKcj
080210b0 T _ZN13NeighborTable14UpdateNeighborEPK35NeighborTableCommonParameters_One_t
08020ddc T _ZN13NeighborTable14UpdateNeighborEPK35NeighborTableCommonParameters_One_tPK35NeighborTableCommonParameters_Two_t
08020c10 T _ZN13NeighborTable20FindOrInsertNeighborEtPh
080209d8 T _ZN13NeighborTable25RecordSenderDelayIncomingEtRKh
08035ca4 T _ZN13OMACScheduler10InitializeEhh
0803606c T _ZN13OMACScheduler12RunEventTaskEv
080357c8 T _ZN13OMACScheduler12UnInitializeEv
080357fc T _ZN13OMACScheduler13GetSlotNumberEv
0803623c T _ZN13OMACScheduler13PostExecutionEv
0803585c T _ZN13OMACScheduler17ScheduleNextEventEv
08035848 T _ZN13OMACScheduler22GetSlotNumberfromTicksERKy
0802a144 T _ZN13STM32F10x_RTC10InitializeEjPFvPvEj
0802a1f4 T _ZN13STM32F10x_RTC10SetCompareEy
0802a298 T _ZN13STM32F10x_RTC11GetMaxTicksEv
0802a0e4 T _ZN13STM32F10x_RTC12Get64CounterEv
0802587c T _ZN13WP_Controller10InitializeEPKcPK16WP_PhysicalLayerPK19WP_ApplicationLayerPv
080258bc T _ZN13WP_Controller12AdvanceStateEv
080258cc T _ZN13WP_Controller19SendProtocolMessageEjjjPh
080258c4 T _ZN13WP_Controller19SendProtocolMessageERK10WP_Message
08065e2c T _ZN14CLR_GFX_Bitmap14CreateInstanceER16CLR_RT_HeapBlockPKhjP15CLR_RT_Assembly
0803dc74 T _ZN14HAL_COMPLETION12EnqueueDeltaEj
0803ddd4 T _ZN14HAL_COMPLETION12UninitializeEv
0803db38 T _ZN14HAL_COMPLETION14DequeueAndExecEv
0803dbd8 T _ZN14HAL_COMPLETION14EnqueueDelta64Ey
0803db24 T _ZN14HAL_COMPLETION14InitializeListEv
0803dd68 T _ZN14HAL_COMPLETION17WaitForInterruptsEyjy
0803dd04 T _ZN14HAL_COMPLETION5AbortEv
0804b240 T _ZN14PalEventDriver10InitializeEv
0804b26c T _ZN14PalEventDriver12UninitializeEv
20005928 B _ZN14PalEventDriver13s_initializedE
080329e4 T _ZN14RadioControl_t10InitializeEv
080329f0 T _ZN14RadioControl_t12UninitializeEv
08032a08 T _ZN14RadioControl_t24PiggybackTimeSyncMessageEP23IEEE802_15_4_Message_t2Rt
080327d8 t _ZN14RadioControl_t27PiggybackEntendedMACInfoMsgEP23IEEE802_15_4_Message_t2Rt.part.6
08032b70 T _ZN14RadioControl_t4SendEtP23IEEE802_15_4_Message_t2t
08032dcc T _ZN14RadioControl_t4StopEv
08032de4 T _ZN14RadioControl_t7StartRxEv
08065f44 T _ZN15CLR_HW_Hardware12PrepareForGCEv
08065e3c T _ZN15CLR_HW_Hardware14CreateInstanceEv
08065f24 T _ZN15CLR_HW_Hardware14DeleteInstanceEv
08065f48 T _ZN15CLR_HW_Hardware15ProcessActivityEv
08066a68 T _ZN15CLR_HW_Hardware15SpawnDispatcherEv
080669b0 t _ZN15CLR_HW_Hardware15SpawnDispatcherEv.part.10
08066c5c T _ZN15CLR_HW_Hardware17ProcessInterruptsEv
08065e54 T _ZN15CLR_HW_Hardware19Hardware_InitializeEv
08066a24 T _ZN15CLR_HW_Hardware19SpawnRTOSDispatcherEP27CLR_RT_ApplicationInterrupt
08066ae0 T _ZN15CLR_HW_Hardware39TransferAllInterruptsToApplicationQueueEv
080501b4 T _ZN15CLR_RT_Assembly10InitStringEv
0805a660 T _ZN15CLR_RT_Assembly11FindTypeDefEPKcS1_R20CLR_RT_TypeDef_Index
0805a938 T _ZN15CLR_RT_Assembly11FindTypeDefEPKctR20CLR_RT_TypeDef_Index
08052104 T _ZN15CLR_RT_Assembly12Resolve_LinkEv
0805af14 T _ZN15CLR_RT_Assembly12VerifyEndianEP19CLR_RECORD_ASSEMBLY
0805a9d0 T _ZN15CLR_RT_Assembly13FindMethodDefEPK18CLR_RECORD_TYPEDEFPKcPS_tR22CLR_RT_MethodDef_Index
08053720 T _ZN15CLR_RT_Assembly14CreateInstanceEPK19CLR_RECORD_ASSEMBLYRPS_
08051f90 T _ZN15CLR_RT_Assembly15DestroyInstanceEv
0805a248 T _ZN15CLR_RT_Assembly15Resolve_TypeDefEv
0805a738 T _ZN15CLR_RT_Assembly15Resolve_TypeRefEv
08051fec T _ZN15CLR_RT_Assembly16Resolve_FieldRefEv
0805a41c T _ZN15CLR_RT_Assembly17Resolve_MethodDefEv
0805ab28 T _ZN15CLR_RT_Assembly17Resolve_MethodRefEv
08051d80 T _ZN15CLR_RT_Assembly19Assembly_InitializeERNS_7OffsetsE
0805a60c T _ZN15CLR_RT_Assembly19ComputeAssemblyHashEPK22CLR_RECORD_ASSEMBLYREF
0805a5e4 T _ZN15CLR_RT_Assembly19ComputeAssemblyHashEv
0805a560 T _ZN15CLR_RT_Assembly19PrepareForExecutionEv
08051e54 T _ZN15CLR_RT_Assembly19Resolve_AssemblyRefEb
0805acf4 T _ZN15CLR_RT_Assembly21Resolve_ComputeHashesEv
0804d834 T _ZN15CLR_RT_Assembly8RelocateEv
080501b8 T _ZN15CLR_RT_Assembly9GetStringEt
08046284 T _ZN15I2C_HAL_XACTION6SignalEhj
0804b1a0 T _ZN15Watchdog_Driver13GetSetEnabledEjj
0804b1d4 T _ZN15Watchdog_Driver13GetSetTimeoutEij
0804b21c T _ZN15Watchdog_Driver13LastOccurenceERNS_13WatchdogEventEj
0804b204 T _ZN15Watchdog_Driver14GetSetBehaviorE17Watchdog_Behaviorj
0804b074 T _ZN15Watchdog_Driver16WatchdogCallbackEPv
08025960 T _ZN16BlockStorageList10InitializeEv
20001b90 B _ZN16BlockStorageList12s_deviceListE
08025bac T _ZN16BlockStorageList13GetNextDeviceER18BlockStorageDevice
20001ba0 B _ZN16BlockStorageList13s_InitializedE
08025b8c T _ZN16BlockStorageList14GetFirstDeviceEv
20001b9c B _ZN16BlockStorageList15s_primaryDeviceE
08025990 T _ZN16BlockStorageList17InitializeDevicesEv
08025a58 T _ZN16BlockStorageList19UnInitializeDevicesEv
08025afc T _ZN16BlockStorageList28FindDeviceForPhysicalAddressEPP18BlockStorageDevicejRj
08025ab4 T _ZN16BlockStorageList9AddDeviceEP18BlockStorageDeviceP19IBlockStorageDevicePvj
080215a0 T _ZN16CLR_DBG_Debugger10PurgeCacheEv
08021700 T _ZN16CLR_DBG_Debugger12Monitor_PingEP10WP_MessagePv
20005dfc B _ZN16CLR_DBG_Debugger13fNoCompactionE
08021460 T _ZN16CLR_DBG_Debugger14CreateInstanceEv
0802157c T _ZN16CLR_DBG_Debugger14DeleteInstanceEv
08022258 T _ZN16CLR_DBG_Debugger14Monitor_RebootEP10WP_MessagePv
0802223c T _ZN16CLR_DBG_Debugger15Monitor_ExecuteEP10WP_MessagePv
08021598 T _ZN16CLR_DBG_Debugger15ProcessCommandsEv
080215a8 T _ZN16CLR_DBG_Debugger17CreateListOfCallsEjRPN16CLR_DBG_Commands22Debugging_Thread_Stack5ReplyERi
080222dc T _ZN16CLR_DBG_Debugger17Monitor_MemoryMapEP10WP_MessagePv
080213b8 T _ZN16CLR_DBG_Debugger18Debugger_DiscoveryEv
08021950 T _ZN16CLR_DBG_Debugger18Monitor_ReadMemoryEP10WP_MessagePv
08022604 T _ZN16CLR_DBG_Debugger18Monitor_UpdateInitEP10WP_MessagePv
20005bec B _ZN16CLR_DBG_Debugger19debuggerErasedFlashE
08021dec T _ZN16CLR_DBG_Debugger19Monitor_CheckMemoryEP10WP_MessagePv
08021fcc T _ZN16CLR_DBG_Debugger19Monitor_EraseMemoryEP10WP_MessagePv
08021be4 T _ZN16CLR_DBG_Debugger19Monitor_WriteMemoryEP10WP_MessagePv
08022db4 T _ZN16CLR_DBG_Debugger20Debugging_Stack_InfoEP10WP_MessagePv
08022be8 T _ZN16CLR_DBG_Debugger20Debugging_Thread_GetEP10WP_MessagePv
08022628 T _ZN16CLR_DBG_Debugger20Monitor_UpdateDeInitEP10WP_MessagePv
08023ff8 T _ZN16CLR_DBG_Debugger21Debugging_Info_SetJMCEP10WP_MessagePv
08022e9c T _ZN16CLR_DBG_Debugger21Debugging_Stack_SetIPEP10WP_MessagePv
08022ae4 T _ZN16CLR_DBG_Debugger21Debugging_Thread_KillEP10WP_MessagePv
080229f4 T _ZN16CLR_DBG_Debugger21Debugging_Thread_ListEP10WP_MessagePv
0802231c T _ZN16CLR_DBG_Debugger21Monitor_DeploymentMapEP10WP_MessagePv
08023aec T _ZN16CLR_DBG_Debugger22Debugging_Resolve_TypeEP10WP_MessagePv
08022a94 T _ZN16CLR_DBG_Debugger22Debugging_Thread_StackEP10WP_MessagePv
080225b0 T _ZN16CLR_DBG_Debugger22Debugging_UpgradeToSslEP10WP_MessagePv
08023698 T _ZN16CLR_DBG_Debugger22Debugging_Value_AssignEP10WP_MessagePv
08021800 T _ZN16CLR_DBG_Debugger22Monitor_FlashSectorMapEP10WP_MessagePv
08023b8c T _ZN16CLR_DBG_Debugger23Debugging_Resolve_FieldEP10WP_MessagePv
08022b98 T _ZN16CLR_DBG_Debugger23Debugging_Thread_ResumeEP10WP_MessagePv
08022d18 T _ZN16CLR_DBG_Debugger23Debugging_Thread_UnwindEP10WP_MessagePv
08021368 T _ZN16CLR_DBG_Debugger24Debugger_WaitForCommandsEv
08022634 T _ZN16CLR_DBG_Debugger24Debugging_MFUpdate_StartEP10WP_MessagePv
08023c48 T _ZN16CLR_DBG_Debugger24Debugging_Resolve_MethodEP10WP_MessagePv
08022b48 T _ZN16CLR_DBG_Debugger24Debugging_Thread_SuspendEP10WP_MessagePv
08023314 T _ZN16CLR_DBG_Debugger24Debugging_Value_GetArrayEP10WP_MessagePv
080233d4 T _ZN16CLR_DBG_Debugger24Debugging_Value_GetBlockEP10WP_MessagePv
08023198 T _ZN16CLR_DBG_Debugger24Debugging_Value_GetFieldEP10WP_MessagePv
08022fac T _ZN16CLR_DBG_Debugger24Debugging_Value_GetStackEP10WP_MessagePv
080234d8 T _ZN16CLR_DBG_Debugger24Debugging_Value_SetArrayEP10WP_MessagePv
08023444 T _ZN16CLR_DBG_Debugger24Debugging_Value_SetBlockEP10WP_MessagePv
0802286c T _ZN16CLR_DBG_Debugger25Debugging_Thread_CreateExEP10WP_MessagePv
20001a30 B _ZN16CLR_DBG_Debugger25m_deploymentStorageDeviceE
08023ef8 T _ZN16CLR_DBG_Debugger26Debugging_Info_SetJMC_TypeERK20CLR_RT_TypeDef_Indexb
08022648 T _ZN16CLR_DBG_Debugger26Debugging_MFUpdate_InstallEP10WP_MessagePv
08023a68 T _ZN16CLR_DBG_Debugger26Debugging_Resolve_AssemblyEP10WP_MessagePv
08023d44 T _ZN16CLR_DBG_Debugger27Debugging_Deployment_StatusEP10WP_MessagePv
08022384 T _ZN16CLR_DBG_Debugger27Debugging_Execution_BasePtrEP10WP_MessagePv
080239a8 T _ZN16CLR_DBG_Debugger27Debugging_Resolve_AppDomainEP10WP_MessagePv
0802257c T _ZN16CLR_DBG_Debugger28Debugging_Execution_AllocateEP10WP_MessagePv
08022644 T _ZN16CLR_DBG_Debugger28Debugging_MFUpdate_AddPacketEP10WP_MessagePv
08023954 T _ZN16CLR_DBG_Debugger28Debugging_TypeSys_AppDomainsEP10WP_MessagePv
08023908 T _ZN16CLR_DBG_Debugger28Debugging_TypeSys_AssembliesEP10WP_MessagePv
08022cc8 T _ZN16CLR_DBG_Debugger29Debugging_Thread_GetExceptionEP10WP_MessagePv
0802361c T _ZN16CLR_DBG_Debugger29Debugging_Value_AllocateArrayEP10WP_MessagePv
080233f0 T _ZN16CLR_DBG_Debugger29Debugging_Value_GetScratchPadEP10WP_MessagePv
08022638 T _ZN16CLR_DBG_Debugger30Debugging_MFUpdate_AuthCommandEP10WP_MessagePv
0802353c T _ZN16CLR_DBG_Debugger30Debugging_Value_AllocateObjectEP10WP_MessagePv
080235a4 T _ZN16CLR_DBG_Debugger30Debugging_Value_AllocateStringEP10WP_MessagePv
080227f8 T _ZN16CLR_DBG_Debugger31Debugging_Execution_BreakpointsEP10WP_MessagePv
0802263c T _ZN16CLR_DBG_Debugger31Debugging_MFUpdate_AuthenticateEP10WP_MessagePv
08023cf8 T _ZN16CLR_DBG_Debugger31Debugging_Resolve_VirtualMethodEP10WP_MessagePv
08022f38 T _ZN16CLR_DBG_Debugger32Debugging_Value_ResizeScratchPadEP10WP_MessagePv
08022640 T _ZN16CLR_DBG_Debugger33Debugging_MFUpdate_GetMissingPktsEP10WP_MessagePv
08022830 T _ZN16CLR_DBG_Debugger36Debugging_Execution_BreakpointStatusEP10WP_MessagePv
080223b0 T _ZN16CLR_DBG_Debugger36Debugging_Execution_ChangeConditionsEP10WP_MessagePv
080227b4 T _ZN16CLR_DBG_Debugger39Debugging_Execution_SetCurrentAppDomainEP10WP_MessagePv
08022428 T _ZN16CLR_DBG_Debugger40Debugging_Execution_QueryCLRCapabilitiesEP10WP_MessagePv
0802264c T _ZN16CLR_DBG_Debugger8GetValueEP10WP_MessageP16CLR_RT_HeapBlockS3_P23CLR_RT_TypeDef_Instance
0805a170 T _ZN16CLR_RT_AppDomain12LoadAssemblyEP15CLR_RT_Assembly
08059e40 T _ZN16CLR_RT_AppDomain13GetAssembliesER16CLR_RT_HeapBlock
080571fc T _ZN16CLR_RT_AppDomain13MarshalObjectER16CLR_RT_HeapBlockS1_PS_
080580c4 T _ZN16CLR_RT_AppDomain14CreateInstanceEPKcRPS_
08052308 T _ZN16CLR_RT_AppDomain15DestroyInstanceEv
080562a0 T _ZN16CLR_RT_AppDomain16GetManagedObjectER16CLR_RT_HeapBlock
080523c4 T _ZN16CLR_RT_AppDomain17MarshalParametersEP16CLR_RT_HeapBlockS1_ibPS_
08052394 T _ZN16CLR_RT_AppDomain21FindAppDomainAssemblyEP15CLR_RT_Assembly
08059f14 T _ZN16CLR_RT_AppDomain8IsLoadedEv
0804d814 T _ZN16CLR_RT_AppDomain8RelocateEv
0804fd24 T _ZN16CLR_RT_HeapBlock10InitObjectEv
0804df74 T _ZN16CLR_RT_HeapBlock10NumericAddERKS_
0804e1a0 T _ZN16CLR_RT_HeapBlock10NumericDivERKS_
0804e10c T _ZN16CLR_RT_HeapBlock10NumericMulERKS_
0804e500 T _ZN16CLR_RT_HeapBlock10NumericNegEv
0804e28c T _ZN16CLR_RT_HeapBlock10NumericRemERKS_
0804e3c4 T _ZN16CLR_RT_HeapBlock10NumericShlERKS_
0804e418 T _ZN16CLR_RT_HeapBlock10NumericShrERKS_
0804e040 T _ZN16CLR_RT_HeapBlock10NumericSubERKS_
0804dcb8 T _ZN16CLR_RT_HeapBlock11GetHashCodeEPS_bj
0804e23c T _ZN16CLR_RT_HeapBlock12NumericDivUnERKS_
0804e370 T _ZN16CLR_RT_HeapBlock12NumericRemUnERKS_
0804e4ac T _ZN16CLR_RT_HeapBlock12NumericShrUnERKS_
0804dda0 T _ZN16CLR_RT_HeapBlock12ObjectsEqualERKS_S1_b
0804d6c0 T _ZN16CLR_RT_HeapBlock12Relocate_ClsEv
0804d85c T _ZN16CLR_RT_HeapBlock12Relocate_ObjEv
0804d6dc T _ZN16CLR_RT_HeapBlock12Relocate_RefEv
0805480c T _ZN16CLR_RT_HeapBlock13PerformBoxingERK23CLR_RT_TypeDef_Instance
0804daec T _ZN16CLR_RT_HeapBlock13SetReflectionERK20CLR_RT_TypeDef_Index
0804dad0 T _ZN16CLR_RT_HeapBlock13SetReflectionERK21CLR_RT_Assembly_Index
0804db08 T _ZN16CLR_RT_HeapBlock13SetReflectionERK21CLR_RT_FieldDef_Index
0805192c T _ZN16CLR_RT_HeapBlock13SetReflectionERK21CLR_RT_TypeSpec_Index
0804db24 T _ZN16CLR_RT_HeapBlock13SetReflectionERK22CLR_RT_MethodDef_Index
0804dab8 T _ZN16CLR_RT_HeapBlock13SetReflectionERK26CLR_RT_ReflectionDef_Index
08050530 T _ZN16CLR_RT_HeapBlock14Compare_ValuesERKS_S1_b
08054954 T _ZN16CLR_RT_HeapBlock15PerformUnboxingERK23CLR_RT_TypeDef_Instance
0804d6a8 T _ZN16CLR_RT_HeapBlock15Relocate_StringEv
0804fd90 T _ZN16CLR_RT_HeapBlock16Convert_InternalE12CLR_DataType
08054770 T _ZN16CLR_RT_HeapBlock16StoreToReferenceERS_i
08054684 t _ZN16CLR_RT_HeapBlock16StoreToReferenceERS_i.part.142
080543c8 T _ZN16CLR_RT_HeapBlock17LoadFromReferenceERS_
0804d6e4 T _ZN16CLR_RT_HeapBlock17Relocate_ArrayRefEv
0804b3b8 t _ZN16CLR_RT_HeapBlock18FixBoxingReferenceEv.part.127
0804e574 T _ZN16CLR_RT_HeapBlock19Relocate__HeapBlockEv
0804da54 T _ZN16CLR_RT_HeapBlock21EnsureObjectReferenceERPS_
080548f8 T _ZN16CLR_RT_HeapBlock21PerformBoxingIfNeededEv
0804db74 T _ZN16CLR_RT_HeapBlock24InitializeArrayReferenceERS_i
0804d6ec T _ZN16CLR_RT_HeapBlock25Relocate_TransparentProxyEv
0804b5e4 W _ZN16CLR_RT_HeapBlock29AssignPreserveTypeCheckPinnedERKS_
0804dbb0 T _ZN16CLR_RT_HeapBlock30FixArrayReferenceForValueTypesEv
0804dc78 T _ZN16CLR_RT_HeapBlock7PromoteEv
080544e8 T _ZN16CLR_RT_HeapBlock8ReassignERKS_
08055a2c T _ZN16CLR_RT_SubThread14CreateInstanceEP13CLR_RT_ThreadP17CLR_RT_StackFrameiRPS_
0805285c T _ZN16CLR_RT_SubThread15DestroyInstanceEP13CLR_RT_ThreadPS_i
08074968 T _ZN16DecisionFunction10InitializeEttffPfS0_S0_
20007f5c B _ZN16DecisionFunction11feature_minE
20007f60 B _ZN16DecisionFunction14scalingFactorsE
20007f58 B _ZN16DecisionFunction3nSVE
200015ac D _ZN16DecisionFunction3rhoE
200015b0 D _ZN16DecisionFunction5gammaE
08074ad4 T _ZN16DecisionFunction6DecideEPj
20007f54 B _ZN16DecisionFunction6weightE
20007f64 B _ZN16DecisionFunction8nFeatureE
08074a34 T _ZN16DecisionFunction9NormalizeEPfPj
08043c40 T _ZN16DiscoveryHandler10InitializeEhh
08044070 T _ZN16DiscoveryHandler12ExecuteEventEv
08044168 T _ZN16DiscoveryHandler12FailsafeStopEv
08044180 T _ZN16DiscoveryHandler13CreateMessageEP12DiscoveryMsg
080441a8 T _ZN16DiscoveryHandler16BeaconAckHandlerEP23IEEE802_15_4_Message_t2h11NetOpStatus
08044260 T _ZN16DiscoveryHandler20HandleRadioInterruptEv
08044264 T _ZN16DiscoveryHandler7Beacon1Ev
08044400 T _ZN16DiscoveryHandler7BeaconNEv
080446b8 T _ZN16DiscoveryHandler7ReceiveEtP12DiscoveryMsgP23MsgLinkQualityMetrics_t
200053a2 B _ZN16DiscoveryHandler9m_period1E
200053a6 B _ZN16DiscoveryHandler9m_period2E
08043d38 T _ZN16DiscoveryHandler9NextEventEv
080269e0 T _ZN16HAL_CONFIG_BLOCK11ApplyConfigEPKcPvjPS2_
080269dc T _ZN16HAL_CONFIG_BLOCK19UpdateBlockWithNameEPKcPvjj
0803df14 T _ZN16HAL_CONTINUATION12UninitializeEv
0803de1c T _ZN16HAL_CONTINUATION14InitializeListEv
0803df08 T _ZN16HAL_CONTINUATION18InitializeCallbackEPFvPvES0_
0803dea0 T _ZN16HAL_CONTINUATION19Dequeue_And_ExecuteEv
0803de74 T _ZN16HAL_CONTINUATION5AbortEv
0803de30 T _ZN16HAL_CONTINUATION7EnqueueEv
0803de10 T _ZN16HAL_CONTINUATION8IsLinkedEv
0805370c T _ZN17CLR_RT_EventCache12Extract_NodeEjjj
080536b4 T _ZN17CLR_RT_EventCache17Extract_Node_FastEjjj
080535bc T _ZN17CLR_RT_EventCache17Extract_Node_SlowEjjj
0805c694 T _ZN17CLR_RT_EventCache17FindVirtualMethodERK20CLR_RT_TypeDef_IndexRK22CLR_RT_MethodDef_IndexRS3_
0804b86c T _ZN17CLR_RT_EventCache18EventCache_CleanupEv
0804b73c T _ZN17CLR_RT_EventCache18VirtualMethodTable14MoveEntryToTopEPNS_4LinkEjj
0805c58c T _ZN17CLR_RT_EventCache18VirtualMethodTable17FindVirtualMethodERK20CLR_RT_TypeDef_IndexRK22CLR_RT_MethodDef_IndexRS4_
0804b774 T _ZN17CLR_RT_EventCache21EventCache_InitializeEv
080540f0 T _ZN17CLR_RT_StackFrame10PushInlineERPKhRP15CLR_RT_AssemblyRP16CLR_RT_HeapBlockR25CLR_RT_MethodDef_InstanceS7_
0804fa20 T _ZN17CLR_RT_StackFrame12NegateResultEv
0804f964 T _ZN17CLR_RT_StackFrame12SetResult_I4Ei
0804f97c T _ZN17CLR_RT_StackFrame12SetResult_I8ERx
0804f924 T _ZN17CLR_RT_StackFrame12SetResult_R4Ef
0804f93c T _ZN17CLR_RT_StackFrame12SetResult_R8Ed
0804f99c T _ZN17CLR_RT_StackFrame12SetResult_U4Ej
0804f9b4 T _ZN17CLR_RT_StackFrame12SetResult_U8ERy
0804fa34 T _ZN17CLR_RT_StackFrame12SetupTimeoutER16CLR_RT_HeapBlockRPx
0804f9ec T _ZN17CLR_RT_StackFrame16SetResult_ObjectEP16CLR_RT_HeapBlock
08057810 T _ZN17CLR_RT_StackFrame16SetResult_StringEPKc
0804f9d4 T _ZN17CLR_RT_StackFrame17SetResult_BooleanEb
08056868 T _ZN17CLR_RT_StackFrame18HandleSynchronizedEbb
0804fa90 T _ZN17CLR_RT_StackFrame18NotImplementedStubEv
0804fa04 T _ZN17CLR_RT_StackFrame22ConvertResultToBooleanEv
08052510 T _ZN17CLR_RT_StackFrame22PopAppDomainTransitionEv
0804f8cc T _ZN17CLR_RT_StackFrame22RestoreFromInlineStackEv
08059db4 T _ZN17CLR_RT_StackFrame23PushAppDomainTransitionEP13CLR_RT_ThreadRK25CLR_RT_MethodDef_InstanceP16CLR_RT_HeapBlockS6_
080525f4 T _ZN17CLR_RT_StackFrame3PopEv
08055048 T _ZN17CLR_RT_StackFrame4PushEP13CLR_RT_ThreadRK25CLR_RT_MethodDef_Instancei
080549dc T _ZN17CLR_RT_StackFrame7FixCallEv
0805c69c T _ZN17CLR_RT_StackFrame8MakeCallE25CLR_RT_MethodDef_InstanceP16CLR_RT_HeapBlockS2_i
0804d728 T _ZN17CLR_RT_StackFrame8RelocateEv
0804f81c T _ZN17CLR_RT_StackFrame9PopInlineEv
0804f90c T _ZN17CLR_RT_StackFrame9SetResultEi12CLR_DataType
0805b4ac T _ZN17CLR_RT_TypeSystem10ResolveAllEv
0805b0e8 T _ZN17CLR_RT_TypeSystem11FindTypeDefEjR20CLR_RT_TypeDef_Index
0805b144 T _ZN17CLR_RT_TypeSystem11FindTypeDefEPKcP15CLR_RT_AssemblyR20CLR_RT_TypeDef_Index
0805b250 T _ZN17CLR_RT_TypeSystem11FindTypeDefEPKcP15CLR_RT_AssemblyR26CLR_RT_ReflectionDef_Index
0805b064 T _ZN17CLR_RT_TypeSystem11FindTypeDefEPKcS1_P15CLR_RT_AssemblyR20CLR_RT_TypeDef_Index
0805af94 T _ZN17CLR_RT_TypeSystem12FindAssemblyEPKcPK18CLR_RECORD_VERSIONb
0805bf48 T _ZN17CLR_RT_TypeSystem13BuildTypeNameERK20CLR_RT_TypeDef_IndexRPcRj
0805bf58 T _ZN17CLR_RT_TypeSystem13BuildTypeNameERK20CLR_RT_TypeDef_IndexRPcRjjj
0804b408 t _ZN17CLR_RT_TypeSystem13BuildTypeNameERK20CLR_RT_TypeDef_IndexRPcRjjj.constprop.173
0805c188 T _ZN17CLR_RT_TypeSystem14BuildFieldNameERK21CLR_RT_FieldDef_IndexRPcRj
0805b428 T _ZN17CLR_RT_TypeSystem14LocateResourceE24CLR_RT_Assembly_InstanceisRPK19CLR_RECORD_RESOURCERj
0805c0e0 T _ZN17CLR_RT_TypeSystem15BuildMethodNameERK22CLR_RT_MethodDef_IndexRPcRj
0805b390 T _ZN17CLR_RT_TypeSystem18LocateResourceFileE24CLR_RT_Assembly_InstancePKcRi
0805bae0 T _ZN17CLR_RT_TypeSystem19PrepareForExecutionEv
0805c230 T _ZN17CLR_RT_TypeSystem20FindVirtualMethodDefERK20CLR_RT_TypeDef_IndexRK22CLR_RT_MethodDef_IndexPKcRS3_
0805c428 T _ZN17CLR_RT_TypeSystem20FindVirtualMethodDefERK20CLR_RT_TypeDef_IndexRK22CLR_RT_MethodDef_IndexRS3_
0805bd5c T _ZN17CLR_RT_TypeSystem20MatchSignatureDirectER22CLR_RT_SignatureParserS1_b
0805becc T _ZN17CLR_RT_TypeSystem21MatchSignatureElementERN22CLR_RT_SignatureParser7ElementES2_b
0805af28 T _ZN17CLR_RT_TypeSystem4LinkEP15CLR_RT_Assembly
080486d8 T _ZN17P30BF65NOR_Driver10EraseBlockEj
08048594 T _ZN17P30BF65NOR_Driver10InitializeEv
08048838 T _ZN17P30BF65NOR_Driver10ReadBufferEPtjj
080487c0 T _ZN17P30BF65NOR_Driver11WriteBufferEPtjj
08048820 T _ZN17P30BF65NOR_Driver12ReadHalfWordEj
0804847c t _ZN17P30BF65NOR_Driver13WriteHalfWordEjt.part.1
08048a10 T _ZN17STM32_AITC_Driver10InitializeEv
20001010 D _ZN17STM32_AITC_Driver10s_IsrTableE
08049bfc T _ZN17STM32_AITC_Driver14STUB_ISRVectorEPv
08049bb8 T _ZN17STM32_AITC_Driver15InterruptEnableEj
08048abc T _ZN17STM32_AITC_Driver17ActivateInterruptEjjPFvPvES0_
08048b20 T _ZN17STM32_AITC_Driver19DeactivateInterruptEj
0802a2a0 T _ZN17Timer16Bit_Driver10InitializeEjjjPFvPvES0_
0802a2a4 T _ZN17Timer16Bit_Driver11GetMaxTicksEv
08025e08 T _ZN18BlockStorageStream10InitializeEj
08025da4 T _ZN18BlockStorageStream10InitializeEjP18BlockStorageDevice
08025bd4 T _ZN18BlockStorageStream10NextStreamEv
08025bcc T _ZN18BlockStorageStream14CurrentAddressEv
08026318 T _ZN18BlockStorageStream14ReadIntoBufferEPhj
08026270 T _ZN18BlockStorageStream4ReadEPPhj
08025e34 T _ZN18BlockStorageStream4SeekEiNS_10SeekOriginE
08026054 T _ZN18BlockStorageStream5EraseEj
08025fd4 T _ZN18BlockStorageStream5WriteEPhj
080263e0 T _ZN18BlockStorageStream8IsErasedEj
0803e698 T _ZN18BlockStorageUpdate10InitializeEv
0803e67c T _ZN18BlockStorageUpdate12GetEraseSizeEi
0803e7dc t _ZN18BlockStorageUpdate15InitializeFilesEj.part.7
0803df94 T _ZN18BlockStorageUpdate32BlockStorageUpdate_RebootHandlerEv
0803e93c T _ZN18BlockStorageUpdate4OpenEitt
0803e6f0 T _ZN18BlockStorageUpdate4ReadEiiPhi
0803dfa4 T _ZN18BlockStorageUpdate5CloseEi
0803e794 T _ZN18BlockStorageUpdate5WriteEiiPhi
0803f888 T _ZN18BlockStorageUpdate6CreateER14MFUpdateHeaderj
0803dfa8 T _ZN18BlockStorageUpdate6DeleteEitt
0803f370 T _ZN18BlockStorageUpdate8GetFilesEtPiS0_
0803e6b4 T _ZN18BlockStorageUpdate8IsErasedEiii
0803e738 T _ZN18BlockStorageUpdate9GetHeaderEiP14MFUpdateHeader
0804eb40 T _ZN18CLR_RT_HeapCluster13ExtractBlocksEjjj
0804ebf4 T _ZN18CLR_RT_HeapCluster13InsertInOrderEP21CLR_RT_HeapBlock_Nodej
08046374 T _ZN18STM32F10x_blDriver10EraseBlockEPvj
08046344 T _ZN18STM32F10x_blDriver13GetDeviceInfoEPv
08046350 T _ZN18STM32F10x_blDriver13IsBlockErasedEPvjj
08046360 T _ZN18STM32F10x_blDriver13SetPowerStateEPvj
08046390 T _ZN18STM32F10x_blDriver16InitializeDeviceEPv
0804638c T _ZN18STM32F10x_blDriver17GetSectorMetadataEPvjP14SectorMetadata
0804634c T _ZN18STM32F10x_blDriver17SetSectorMetadataEPvjP14SectorMetadata
0804636c T _ZN18STM32F10x_blDriver18MaxBlockErase_uSecEPv
08046340 T _ZN18STM32F10x_blDriver18UninitializeDeviceEPv
08046364 T _ZN18STM32F10x_blDriver19MaxSectorWrite_uSecEPv
08046348 T _ZN18STM32F10x_blDriver4ReadEPvjjPh
08046400 T _ZN18STM32F10x_blDriver5WriteEPvjjPhj
08046394 T _ZN18STM32F10x_blDriver6MemsetEPvjhj
0804adfc T _ZN18VirtualTimerMapper10InitializeEt
0804af3c T _ZN18VirtualTimerMapper10StartTimerEh
0804aee4 T _ZN18VirtualTimerMapper11ChangeTimerEhjjj
0804ae3c T _ZN18VirtualTimerMapper8SetTimerEhjjjjPFvPvE
0804b02c T _ZN18VirtualTimerMapper9StopTimerEh
08075404 T _ZN19DATASTORE_AddrTable11removeEntryEj
08075334 T _ZN19DATASTORE_AddrTable13getCurrentLocEj
08075374 T _ZN19DATASTORE_AddrTable13getCurrentLocEPvS0_S0_R4PACK
080753a0 T _ZN19DATASTORE_AddrTable15getMaxWriteSizeEPv
080754a0 T _ZN19DATASTORE_AddrTable16sortAddressTableEv
08075444 T _ZN19DATASTORE_AddrTable17eraseAddressTableEv
080753c4 T _ZN19DATASTORE_AddrTable17getAllocationSizeEj
08075530 T _ZN19DATASTORE_AddrTable21updateCurrentLocationEjPv
08075200 t _ZN19DATASTORE_AddrTable6searchEPvP4PACK.part.3
080752a0 T _ZN19DATASTORE_AddrTable8addEntryEP4PACK
0803fd00 T _ZN19UpdateValidationCRC11AuthCommandEP8MFUpdatejPhiS2_Ri
0803fc88 T _ZN19UpdateValidationCRC12AuthenticateEP8MFUpdatePhi
0803fd28 T _ZN19UpdateValidationCRC14ValidatePacketEP8MFUpdatePhiS2_i
0803fc8c T _ZN19UpdateValidationCRC14ValidateUpdateEP8MFUpdatePhi
0804b660 W _ZN20CLR_RT_DblLinkedList10LinkAtBackEP21CLR_RT_HeapBlock_Node
0804da3c T _ZN20CLR_RT_DblLinkedList10NumOfNodesEv
0804d9c4 T _ZN20CLR_RT_DblLinkedList21DblLinkedList_ReleaseEv
0804d960 T _ZN20CLR_RT_DblLinkedList24DblLinkedList_InitializeEv
0804d96c T _ZN20CLR_RT_DblLinkedList25DblLinkedList_PushToCacheEv
0804cbb0 T _ZN20CLR_RT_ProtectFromGC10InitializeER16CLR_RT_HeapBlock
0804cbe4 T _ZN20CLR_RT_ProtectFromGC7CleanupEv
0804b3ac t _ZN20CLR_RT_ProtectFromGC7CleanupEv.part.103
20005be8 B _ZN20CLR_RT_ProtectFromGC7s_firstE
0804fb78 T _ZN20CLR_RT_UnicodeHelper15ConvertFromUTF8Eibi
0804fabc T _ZN20CLR_RT_UnicodeHelper23CountNumberOfCharactersEi
080400ec T _ZN20DataReceptionHandler10InitializeEhh
0803fd58 t _ZN20DataReceptionHandler11SendDataACKEv.part.9
08040614 T _ZN20DataReceptionHandler12ExecuteEventEv
080409c4 T _ZN20DataReceptionHandler12FailsafeStopEv
080407c0 T _ZN20DataReceptionHandler14SendACKHandlerEv
08040854 T _ZN20DataReceptionHandler20HandleEndofReceptionEt
0804072c T _ZN20DataReceptionHandler20HandleRadioInterruptEv
08040554 T _ZN20DataReceptionHandler32UpdateSeedandCalculateWakeupSlotERyRtRKtRKjRKy
0804025c T _ZN20DataReceptionHandler9NextEventEv
08044c38 T _ZN20FileSystemVolumeList10InitializeEv
08044c3c T _ZN20FileSystemVolumeList17InitializeVolumesEv
08044c40 T _ZN20FileSystemVolumeList19UninitializeVolumesEv
2000579c B _ZN20STM32F10x_I2C_Driver17IsInitializedI2C1E
08056644 T _ZN21CLR_RT_HeapBlock_Lock11ChangeOwnerEv
08054f58 T _ZN21CLR_RT_HeapBlock_Lock14CreateInstanceERPS_P13CLR_RT_ThreadR16CLR_RT_HeapBlock
0804b35c T _ZN21CLR_RT_HeapBlock_Lock14Relocate_OwnerEv
08056744 T _ZN21CLR_RT_HeapBlock_Lock18DecrementOwnershipEPS_P16CLR_RT_SubThread
08056488 T _ZN21CLR_RT_HeapBlock_Lock18IncrementOwnershipEPS_P16CLR_RT_SubThreadRKxb
0804b564 T _ZN21CLR_RT_HeapBlock_Lock8RelocateEv
0804d6fc T _ZN21CLR_RT_HeapBlock_Node8RelocateEv
080510cc T _ZN21CLR_RT_TypeDescriptor14ConvertToArrayEv
080519b0 T _ZN21CLR_RT_TypeDescriptor14GetElementTypeERS_
08051004 T _ZN21CLR_RT_TypeDescriptor18InitializeFromTypeERK20CLR_RT_TypeDef_Index
08051118 T _ZN21CLR_RT_TypeDescriptor20InitializeFromObjectERK16CLR_RT_HeapBlock
08050f90 T _ZN21CLR_RT_TypeDescriptor22InitializeFromDataTypeE12CLR_DataType
0805183c T _ZN21CLR_RT_TypeDescriptor22InitializeFromTypeSpecERK21CLR_RT_TypeSpec_Index
0805124c T _ZN21CLR_RT_TypeDescriptor24InitializeFromReflectionERK26CLR_RT_ReflectionDef_Index
080519e4 T _ZN21CLR_RT_TypeDescriptor26ExtractTypeIndexFromObjectERK16CLR_RT_HeapBlockR20CLR_RT_TypeDef_Index
080517e8 T _ZN21CLR_RT_TypeDescriptor29InitializeFromFieldDefinitionERK24CLR_RT_FieldDef_Instance
080517a8 T _ZN21CLR_RT_TypeDescriptor29InitializeFromSignatureParserER22CLR_RT_SignatureParser
20001336 D _ZN21Samraksh_Emote_Update10s_destAddrE
20003a94 B _ZN21Samraksh_Emote_Update10s_fRadioOnE
08031848 T _ZN21Samraksh_Emote_Update11AuthCommandEP10WP_MessagePv
08030b38 t _ZN21Samraksh_Emote_Update11AuthCommandEP10WP_MessagePv.part.12
080316a4 T _ZN21Samraksh_Emote_Update11SendInstallEjt
080319d8 T _ZN21Samraksh_Emote_Update12AuthenticateEP10WP_MessagePv
08030a24 t _ZN21Samraksh_Emote_Update13InitializeMacEv.part.9
0803151c T _ZN21Samraksh_Emote_Update13SendAddPacketEjtj
08030e70 T _ZN21Samraksh_Emote_Update13SetMacHandlerEv
08030d8c T _ZN21Samraksh_Emote_Update14CreateInstanceEv
08030e3c T _ZN21Samraksh_Emote_Update14DeleteInstanceEv
08031b3c T _ZN21Samraksh_Emote_Update14GetMissingPktsEP10WP_MessagePv
20003a98 B _ZN21Samraksh_Emote_Update14s_fUseWpPacketE
200037c8 B _ZN21Samraksh_Emote_Update14s_lastUsbOwnerE
0803112c T _ZN21Samraksh_Emote_Update15SendAuthCommandEjt
20003aa8 B _ZN21Samraksh_Emote_Update16s_lastUsbMessageE
08031284 T _ZN21Samraksh_Emote_Update16SendAuthenticateEjt
08030f0c T _ZN21Samraksh_Emote_Update16UpdateCompletionEPv
20003a28 B _ZN21Samraksh_Emote_Update17s_destMissingPktsE
20003a20 B _ZN21Samraksh_Emote_Update18s_fBaseStationModeE
20003a00 B _ZN21Samraksh_Emote_Update18s_UpdateCompletionE
080313d4 T _ZN21Samraksh_Emote_Update18SendGetMissingPktsEjt
20003aa0 B _ZN21Samraksh_Emote_Update20s_fPublishUpdateModeE
08031c84 T _ZN21Samraksh_Emote_Update21Receive_IEEE_802_15_4EPvt
20003a90 B _ZN21Samraksh_Emote_Update21s_UpdateCompletionArgE
20003a9c B _ZN21Samraksh_Emote_Update24s_UpdaterProgressHandlerE
08030878 T _ZN21Samraksh_Emote_Update28Wireless_Phy_TransmitMessageEPvPK10WP_Message
080309a4 T _ZN21Samraksh_Emote_Update29Wireless_Phy_ReadReceiveBytesEPvRPhRj
08030ec8 T _ZN21Samraksh_Emote_Update32UnInitializeDriversBeforeInstallEv
08031748 T _ZN21Samraksh_Emote_Update5StartEP10WP_MessagePv
080324e0 T _ZN21Samraksh_Emote_Update7InstallEP10WP_MessagePv
08032350 T _ZN21Samraksh_Emote_Update9AddPacketEP10WP_MessagePv
08030c04 t _ZN21Samraksh_Emote_Update9AddPacketEP10WP_MessagePv.part.14
20003a24 B _ZN21Samraksh_Emote_Update9s_RadioIDE
08030f88 T _ZN21Samraksh_Emote_Update9SendStartEjt
08066c90 T _ZN22CLR_RT_BinaryFormatter11DeserializeER16CLR_RT_HeapBlockS1_PS0_Pjj
08066c88 T _ZN22CLR_RT_BinaryFormatter9SerializeER16CLR_RT_HeapBlockS1_PS0_j
0805656c T _ZN22CLR_RT_ExecutionEngine10LockObjectER16CLR_RT_HeapBlockP16CLR_RT_SubThreadRKxb
08058b9c T _ZN22CLR_RT_ExecutionEngine10SpawnTimerEv
0804e9dc T _ZN22CLR_RT_ExecutionEngine10UpdateTimeEv
0804bf50 T _ZN22CLR_RT_ExecutionEngine10WaitEventsEP13CLR_RT_ThreadRKxjRb
08058c1c T _ZN22CLR_RT_ExecutionEngine11CheckTimersERx
080542f4 T _ZN22CLR_RT_ExecutionEngine11CloneObjectER16CLR_RT_HeapBlockRKS0_
0804bffc T _ZN22CLR_RT_ExecutionEngine11InitTimeoutERxi
0804bfbc T _ZN22CLR_RT_ExecutionEngine11InitTimeoutERxRKx
08058cbc T _ZN22CLR_RT_ExecutionEngine12CheckThreadsERxR20CLR_RT_DblLinkedList
0804ea38 T _ZN22CLR_RT_ExecutionEngine12DebuggerLoopEv
080518a8 T _ZN22CLR_RT_ExecutionEngine12IsInstanceOfER16CLR_RT_HeapBlockP15CLR_RT_Assemblyj
08051640 T _ZN22CLR_RT_ExecutionEngine12IsInstanceOfER16CLR_RT_HeapBlockRK20CLR_RT_TypeDef_Index
080514f4 T _ZN22CLR_RT_ExecutionEngine12IsInstanceOfER21CLR_RT_TypeDescriptorS1_
08051610 T _ZN22CLR_RT_ExecutionEngine12IsInstanceOfERK20CLR_RT_TypeDef_IndexS2_
08058f50 T _ZN22CLR_RT_ExecutionEngine12ProcessTimerEv
08052f58 T _ZN22CLR_RT_ExecutionEngine12SignalEventsEj
080567b4 T _ZN22CLR_RT_ExecutionEngine12UnlockObjectER16CLR_RT_HeapBlockP16CLR_RT_SubThread
0804b8dc T _ZN22CLR_RT_ExecutionEngine13AllocateHeapsEv
08054614 T _ZN22CLR_RT_ExecutionEngine13CopyValueTypeEP16CLR_RT_HeapBlockPKS0_
0804bab4 T _ZN22CLR_RT_ExecutionEngine13StartHardwareEv
08058244 T _ZN22CLR_RT_ExecutionEngine14CreateInstanceEv
08058b88 T _ZN22CLR_RT_ExecutionEngine14DeleteInstanceEv
0804dec4 T _ZN22CLR_RT_ExecutionEngine14FindLockObjectER16CLR_RT_HeapBlock
20005bd0 B _ZN22CLR_RT_ExecutionEngine14s_compensationE
08053308 T _ZN22CLR_RT_ExecutionEngine14SpawnFinalizerEv
0804be9c T _ZN22CLR_RT_ExecutionEngine15GetNextThreadIdEv
08052afc T _ZN22CLR_RT_ExecutionEngine15PutInProperListEP13CLR_RT_Thread
08052b6c t _ZN22CLR_RT_ExecutionEngine15PutInProperListEP13CLR_RT_Thread.constprop.167
080597ec T _ZN22CLR_RT_ExecutionEngine15ScheduleThreadsEi
08052dc8 T _ZN22CLR_RT_ExecutionEngine15UnloadAppDomainEP16CLR_RT_AppDomainP13CLR_RT_Thread
0804bd6c T _ZN22CLR_RT_ExecutionEngine15WaitForActivityEjjx
08059014 T _ZN22CLR_RT_ExecutionEngine15WaitForActivityEv
0804bb78 T _ZN22CLR_RT_ExecutionEngine15WaitForDebuggerEv
08053eac T _ZN22CLR_RT_ExecutionEngine16InitializeLocalsEP16CLR_RT_HeapBlockP15CLR_RT_AssemblyPK20CLR_RECORD_METHODDEF
0804c040 T _ZN22CLR_RT_ExecutionEngine16StopOnBreakpointERN16CLR_DBG_Commands33Debugging_Execution_BreakpointDefEP13CLR_RT_Thread
0804beac T _ZN22CLR_RT_ExecutionEngine17AccessStaticFieldERK21CLR_RT_FieldDef_Index
08053430 T _ZN22CLR_RT_ExecutionEngine17ExtractHeapBlocksER20CLR_RT_DblLinkedListjjj
080570d4 t _ZN22CLR_RT_ExecutionEngine17ExtractHeapBlocksER20CLR_RT_DblLinkedListjjj.constprop.166
08052c54 T _ZN22CLR_RT_ExecutionEngine18DeleteLockRequestsEP13CLR_RT_ThreadP16CLR_RT_SubThreadR20CLR_RT_DblLinkedList
080532b4 T _ZN22CLR_RT_ExecutionEngine18EnsureSystemThreadERP13CLR_RT_Threadi
08056ce0 T _ZN22CLR_RT_ExecutionEngine18InstallBreakpointsEPN16CLR_DBG_Commands33Debugging_Execution_BreakpointDefEj
080542b4 T _ZN22CLR_RT_ExecutionEngine18NewObjectFromIndexER16CLR_RT_HeapBlockRK20CLR_RT_TypeDef_Index
0804cba8 T _ZN22CLR_RT_ExecutionEngine19GetCurrentAppDomainEv
08053e80 T _ZN22CLR_RT_ExecutionEngine19InitializeReferenceER16CLR_RT_HeapBlockPK19CLR_RECORD_FIELDDEFP15CLR_RT_Assembly
08053dd4 T _ZN22CLR_RT_ExecutionEngine19InitializeReferenceER16CLR_RT_HeapBlockR22CLR_RT_SignatureParser
0804cb9c T _ZN22CLR_RT_ExecutionEngine19SetCurrentAppDomainEP16CLR_RT_AppDomain
0804c944 T _ZN22CLR_RT_ExecutionEngine20Breakpoint_ExceptionEP17CLR_RT_StackFramejPKh
0804bf18 T _ZN22CLR_RT_ExecutionEngine20InvalidateTimerCacheEv
0804efa4 T _ZN22CLR_RT_ExecutionEngine21PerformHeapCompactionEv
08052ff0 T _ZN22CLR_RT_ExecutionEngine21TryToUnloadAppDomainsEv
0804bdd4 T _ZN22CLR_RT_ExecutionEngine22InsertThreadRoundRobinER20CLR_RT_DblLinkedListP13CLR_RT_Thread
080587a0 T _ZN22CLR_RT_ExecutionEngine22SpawnStaticConstructorERP13CLR_RT_Thread
080575dc t _ZN22CLR_RT_ExecutionEngine22SpawnStaticConstructorERP13CLR_RT_Thread.part.152
0804c258 T _ZN22CLR_RT_ExecutionEngine23Breakpoint_System_EventERN16CLR_DBG_Commands33Debugging_Execution_BreakpointDefEtP13CLR_RT_ThreadP17CLR_RT_StackFramePKh
0804c208 T _ZN22CLR_RT_ExecutionEngine23DequeueActiveBreakpointERN16CLR_DBG_Commands33Debugging_Execution_BreakpointDefE
080588f8 T _ZN22CLR_RT_ExecutionEngine23ExecutionEngine_CleanupEv
080533e8 T _ZN22CLR_RT_ExecutionEngine24PerformGarbageCollectionEv
0804c67c T _ZN22CLR_RT_ExecutionEngine25Breakpoint_StackFrame_PopEP17CLR_RT_StackFrameb
0804c0d4 t _ZN22CLR_RT_ExecutionEngine26Breakpoint_StackFrame_HardEP17CLR_RT_StackFramePKh.part.102
0804c56c T _ZN22CLR_RT_ExecutionEngine26Breakpoint_StackFrame_PushEP17CLR_RT_StackFramej
0804c748 T _ZN22CLR_RT_ExecutionEngine26Breakpoint_StackFrame_StepEP17CLR_RT_StackFramePKh
0804c464 T _ZN22CLR_RT_ExecutionEngine26Breakpoint_Threads_PrepareER20CLR_RT_DblLinkedList
0804bb44 T _ZN22CLR_RT_ExecutionEngine26ExecutionConstraint_ResumeEv
08053590 T _ZN22CLR_RT_ExecutionEngine26ExtractHeapBlocksForEventsEjjj
08053558 T _ZN22CLR_RT_ExecutionEngine26ExtractHeapBytesForObjectsEjjj
0804c81c T _ZN22CLR_RT_ExecutionEngine27Breakpoint_StackFrame_BreakEP17CLR_RT_StackFrame
0804bb28 T _ZN22CLR_RT_ExecutionEngine27ExecutionConstraint_SuspendEv
0804c38c T _ZN22CLR_RT_ExecutionEngine28Breakpoint_Assemblies_LoadedEv
08058794 T _ZN22CLR_RT_ExecutionEngine28FinalizerTerminationCallbackEPv
080574e0 T _ZN22CLR_RT_ExecutionEngine28SpawnStaticConstructorHelperEP16CLR_RT_AppDomainP24CLR_RT_AppDomainAssemblyRK22CLR_RT_MethodDef_Index
0804ca7c T _ZN22CLR_RT_ExecutionEngine32Breakpoint_Exception_InterceptedEP17CLR_RT_StackFrame
08052d24 T _ZN22CLR_RT_ExecutionEngine32PrepareThreadsForAppDomainUnloadEP16CLR_RT_AppDomainR20CLR_RT_DblLinkedList
0805769c T _ZN22CLR_RT_ExecutionEngine36StaticConstructorTerminationCallbackEPv
08053520 T _ZN22CLR_RT_ExecutionEngine37ExtractHeapBlocksForClassOrValueTypesEjjRK20CLR_RT_TypeDef_Indexj
0804bf28 T _ZN22CLR_RT_ExecutionEngine5SleepEP13CLR_RT_ThreadRKx
0804bac0 T _ZN22CLR_RT_ExecutionEngine6RebootEb
080599b4 T _ZN22CLR_RT_ExecutionEngine7ExecuteEPwi
0804bb0c T _ZN22CLR_RT_ExecutionEngine9GetUptimeEv
08053c34 T _ZN22CLR_RT_ExecutionEngine9NewObjectER16CLR_RT_HeapBlockRK23CLR_RT_TypeDef_Instance
08055ce0 T _ZN22CLR_RT_ExecutionEngine9NewThreadERP13CLR_RT_ThreadP25CLR_RT_HeapBlock_Delegateiij
0804e620 T _ZN22CLR_RT_HeapBlock_Array10CheckRangeEiii
08054e24 T _ZN22CLR_RT_HeapBlock_Array13ClearElementsEii
0805802c T _ZN22CLR_RT_HeapBlock_Array14CreateInstanceER16CLR_RT_HeapBlockjP15CLR_RT_Assemblyj
08057bc0 T _ZN22CLR_RT_HeapBlock_Array14CreateInstanceER16CLR_RT_HeapBlockjRK20CLR_RT_TypeDef_Index
08057acc T _ZN22CLR_RT_HeapBlock_Array14CreateInstanceER16CLR_RT_HeapBlockjRK26CLR_RT_ReflectionDef_Index
08054b44 T _ZN22CLR_RT_HeapBlock_Array4CopyEPS_iS0_ii
080507a0 T _ZN22CLR_RT_HeapBlock_Array7IndexOfEPS_R16CLR_RT_HeapBlockiibRi
0804d618 T _ZN22CLR_RT_HeapBlock_Array8RelocateEv
0804b36c T _ZN22CLR_RT_HeapBlock_Queue14ObjArrayMemcpyEP22CLR_RT_HeapBlock_ArrayiS1_ii
0804e7e8 T _ZN22CLR_RT_HeapBlock_Queue4PeekERP16CLR_RT_HeapBlock
08054ed4 T _ZN22CLR_RT_HeapBlock_Queue5ClearEv
0804e808 T _ZN22CLR_RT_HeapBlock_Queue6CopyToEP22CLR_RT_HeapBlock_Arrayi
0804e798 T _ZN22CLR_RT_HeapBlock_Queue7DequeueERP16CLR_RT_HeapBlock
08057e2c T _ZN22CLR_RT_HeapBlock_Queue7EnqueueEP16CLR_RT_HeapBlock
0804e894 T _ZN22CLR_RT_HeapBlock_Stack3PopERP16CLR_RT_HeapBlock
0804e8d8 T _ZN22CLR_RT_HeapBlock_Stack4PeekERP16CLR_RT_HeapBlock
08057f38 T _ZN22CLR_RT_HeapBlock_Stack4PushEP16CLR_RT_HeapBlock
08054f34 T _ZN22CLR_RT_HeapBlock_Stack5ClearEv
08055304 T _ZN22CLR_RT_HeapBlock_Timer10SpawnTimerEP13CLR_RT_Thread
0804ea90 T _ZN22CLR_RT_HeapBlock_Timer13CheckDisposedER17CLR_RT_StackFrame
08055d38 T _ZN22CLR_RT_HeapBlock_Timer14CreateInstanceEjR16CLR_RT_HeapBlockS1_
08055e9c T _ZN22CLR_RT_HeapBlock_Timer15ConfigureObjectER17CLR_RT_StackFramej
0804e8fc T _ZN22CLR_RT_HeapBlock_Timer15ExtractInstanceER16CLR_RT_HeapBlockRPS_
0804e91c T _ZN22CLR_RT_HeapBlock_Timer21AdjustNextFixedExpireERK10SYSTEMTIMEb
080587f4 T _ZN22CLR_RT_HeapBlock_Timer25ThreadTerminationCallbackEPv
080503d0 T _ZN22CLR_RT_SignatureParser18Initialize_ObjectsEP16CLR_RT_HeapBlockib
0805035c T _ZN22CLR_RT_SignatureParser21Initialize_InterfacesEP15CLR_RT_AssemblyPK18CLR_RECORD_TYPEDEF
080503b0 T _ZN22CLR_RT_SignatureParser23Initialize_MethodLocalsEP15CLR_RT_AssemblyPK20CLR_RECORD_METHODDEF
0805038c T _ZN22CLR_RT_SignatureParser26Initialize_MethodSignatureEP15CLR_RT_AssemblyPK20CLR_RECORD_METHODDEF
08051284 T _ZN22CLR_RT_SignatureParser7AdvanceERNS_7ElementE
0804660c T _ZN22STM32F10x_blDriver_nor10EraseBlockEPvj
080464ec T _ZN22STM32F10x_blDriver_nor13GetDeviceInfoEPv
080465f0 T _ZN22STM32F10x_blDriver_nor13IsBlockErasedEPvjj
080464f4 T _ZN22STM32F10x_blDriver_nor13SetPowerStateEPvj
08046508 T _ZN22STM32F10x_blDriver_nor16InitializeDeviceEPv
0804662c T _ZN22STM32F10x_blDriver_nor17GetSectorMetadataEPvjP14SectorMetadata
080464f0 T _ZN22STM32F10x_blDriver_nor17SetSectorMetadataEPvjP14SectorMetadata
08046500 T _ZN22STM32F10x_blDriver_nor18MaxBlockErase_uSecEPv
080464e8 T _ZN22STM32F10x_blDriver_nor18UninitializeDeviceEPv
080464f8 T _ZN22STM32F10x_blDriver_nor19MaxSectorWrite_uSecEPv
08046514 T _ZN22STM32F10x_blDriver_nor4ReadEPvjjPh
08046534 T _ZN22STM32F10x_blDriver_nor5WriteEPvjjPhj
08046568 T _ZN22STM32F10x_blDriver_nor6MemsetEPvjhj
08051b28 T _ZN23CLR_RT_ExceptionHandler13ConvertFromEHERK25CLR_RT_MethodDef_InstancePKhPK13CLR_RECORD_EH
0804cd5c T _ZN23CLR_RT_GarbageCollector11Thread_MarkEP13CLR_RT_Thread
0804ec88 T _ZN23CLR_RT_GarbageCollector12Heap_CompactEv
0804d5bc T _ZN23CLR_RT_GarbageCollector13Heap_RelocateEP16CLR_RT_HeapBlockj
0804d644 T _ZN23CLR_RT_GarbageCollector13Heap_RelocateEPPv
0804d91c T _ZN23CLR_RT_GarbageCollector13Heap_RelocateEv
0804cd04 T _ZN23CLR_RT_GarbageCollector14AppDomain_MarkEv
0804ef30 T _ZN23CLR_RT_GarbageCollector17ExecuteCompactionEv
0804d864 T _ZN23CLR_RT_GarbageCollector18Heap_Relocate_PassEPFbPPvE
08050880 t _ZN23CLR_RT_GarbageCollector19CheckMemoryPressureEv.part.138
0804d0b0 T _ZN23CLR_RT_GarbageCollector19RecoverEventsFromGCEv
08050944 T _ZN23CLR_RT_GarbageCollector24ExecuteGarbageCollectionEv
0805707c T _ZN23CLR_RT_GarbageCollector38ComputeReachabilityGraphForSingleBlockEPP16CLR_RT_HeapBlock
08056e28 T _ZN23CLR_RT_GarbageCollector41ComputeReachabilityGraphForMultipleBlocksEP16CLR_RT_HeapBlockj
0804ce54 T _ZN23CLR_RT_GarbageCollector4MarkEv
0804d4cc T _ZN23CLR_RT_GarbageCollector5SweepEv
0804cc04 T _ZN23CLR_RT_GarbageCollector8MarkSlowEv
0804cc6c T _ZN23CLR_RT_GarbageCollector8MarkWeakEv
08057704 T _ZN23CLR_RT_HeapBlock_String14CreateInstanceER16CLR_RT_HeapBlockj
08057798 T _ZN23CLR_RT_HeapBlock_String14CreateInstanceER16CLR_RT_HeapBlockjP15CLR_RT_Assembly
08057898 T _ZN23CLR_RT_HeapBlock_String14CreateInstanceER16CLR_RT_HeapBlockPKc
08057754 T _ZN23CLR_RT_HeapBlock_String14CreateInstanceER16CLR_RT_HeapBlockPKcP15CLR_RT_Assembly
08057918 T _ZN23CLR_RT_HeapBlock_String14CreateInstanceER16CLR_RT_HeapBlockPtj
08050d14 T _ZN23CLR_RT_TypeDef_Instance12ResolveTokenEjP15CLR_RT_Assembly
08050d8c T _ZN23CLR_RT_TypeDef_Instance14SwitchToParentEv
08050c80 T _ZN23CLR_RT_TypeDef_Instance19InitializeFromFieldERK24CLR_RT_FieldDef_Instance
08050bf4 T _ZN23CLR_RT_TypeDef_Instance19InitializeFromIndexERK20CLR_RT_TypeDef_Index
08050c34 T _ZN23CLR_RT_TypeDef_Instance20InitializeFromMethodERK25CLR_RT_MethodDef_Instance
08050420 T _ZN23CLR_RT_TypeDef_Instance24InitializeFromReflectionERK26CLR_RT_ReflectionDef_IndexPj
08041074 T _ZN23DataTransmissionHandler10DropPacketEv
08040bf4 T _ZN23DataTransmissionHandler10InitializeEv
08042bb4 T _ZN23DataTransmissionHandler12ExecuteEventEv
080425d0 T _ZN23DataTransmissionHandler12FailsafeStopEv
08042294 T _ZN23DataTransmissionHandler14ReceiveDATAACKEt
08041f08 T _ZN23DataTransmissionHandler14SendACKHandlerEP23IEEE802_15_4_Message_t2h
08041d8c T _ZN23DataTransmissionHandler16PostExecuteEventEv
0804300c t _ZN23DataTransmissionHandler18CalculateNextRXOppEt.part.10
080429f8 T _ZN23DataTransmissionHandler18ExecuteEventHelperEv
080425d8 T _ZN23DataTransmissionHandler19SelectPacketForDestEt
08040c58 T _ZN23DataTransmissionHandler20CalculateNextTxMicroEt
08040e5c T _ZN23DataTransmissionHandler20SendACKToUpperLayersEP23IEEE802_15_4_Message_t2t11NetOpStatush
08042d24 T _ZN23DataTransmissionHandler25UpdateNeighborsWakeUpSlotEth
08043398 T _ZN23DataTransmissionHandler9NextEventEv
08029680 T _ZN23STM32F10x_AdvancedTimer10GetCounterEv
0802983c T _ZN23STM32F10x_AdvancedTimer10InitializeEjPFvPvEj
080299dc T _ZN23STM32F10x_AdvancedTimer10SetCompareEy
08029b34 T _ZN23STM32F10x_AdvancedTimer11GetMaxTicksEv
080296c0 T _ZN23STM32F10x_AdvancedTimer12Get64CounterEv
0805a128 T _ZN24CLR_RT_AppDomainAssembly14CreateInstanceEP16CLR_RT_AppDomainP15CLR_RT_AssemblyRPS_
0805a0dc T _ZN24CLR_RT_AppDomainAssembly15DestroyInstanceEv
08059f20 T _ZN24CLR_RT_AppDomainAssembly28AppDomainAssembly_InitializeEP16CLR_RT_AppDomainP15CLR_RT_Assembly
0804d638 T _ZN24CLR_RT_AppDomainAssembly8RelocateEv
08050e60 T _ZN24CLR_RT_FieldDef_Instance12ResolveTokenEjP15CLR_RT_Assembly
08050e24 T _ZN24CLR_RT_FieldDef_Instance19InitializeFromIndexERK21CLR_RT_FieldDef_Index
080503e0 T _ZN24CLR_RT_TypeSpec_Instance12ResolveTokenEjP15CLR_RT_Assembly
08057488 T _ZN25CLR_RT_HeapBlock_Delegate14CreateInstanceER16CLR_RT_HeapBlockRK22CLR_RT_MethodDef_IndexP17CLR_RT_StackFrame
0804b5a4 T _ZN25CLR_RT_HeapBlock_Delegate8RelocateEv
080254b0 T _ZN25CLR_RT_HeapBlock_EndPoint12FindEndPointERKNS_4PortE
080254ac T _ZN25CLR_RT_HeapBlock_EndPoint21HandlerMethod_CleanUpEv
080254a4 T _ZN25CLR_RT_HeapBlock_EndPoint24HandlerMethod_InitializeEv
080254a8 T _ZN25CLR_RT_HeapBlock_EndPoint27HandlerMethod_RecoverFromGCEv
08050f1c T _ZN25CLR_RT_MethodDef_Instance12ResolveTokenEjP15CLR_RT_Assembly
08050ed4 T _ZN25CLR_RT_MethodDef_Instance19InitializeFromIndexERK22CLR_RT_MethodDef_Index
08050f10 T _ZN25CLR_RT_MethodDef_Instance5ClearEv
08057be0 T _ZN26CLR_RT_HeapBlock_ArrayList11SetCapacityEi
08057d68 T _ZN26CLR_RT_HeapBlock_ArrayList3AddEP16CLR_RT_HeapBlockRi
08054eb0 T _ZN26CLR_RT_HeapBlock_ArrayList5ClearEv
08057c54 T _ZN26CLR_RT_HeapBlock_ArrayList6InsertEiP16CLR_RT_HeapBlock
0804e640 T _ZN26CLR_RT_HeapBlock_ArrayList7GetItemEiRP16CLR_RT_HeapBlock
0804e664 T _ZN26CLR_RT_HeapBlock_ArrayList7SetItemEiP16CLR_RT_HeapBlock
0804e694 T _ZN26CLR_RT_HeapBlock_ArrayList8RemoveAtEi
08053b84 T _ZN26CLR_RT_HeapBlock_Finalizer14CreateInstanceEP16CLR_RT_HeapBlockRK23CLR_RT_TypeDef_Instance
0804e70c T _ZN26CLR_RT_HeapBlock_Finalizer16SuppressFinalizeEP16CLR_RT_HeapBlock
0804d6f4 T _ZN26CLR_RT_HeapBlock_Finalizer8RelocateEv
080251b4 T _ZN26CLR_RT_Persistence_Manager10InitializeEv
080251b0 T _ZN26CLR_RT_Persistence_Manager12UninitializeEv
080251b8 T _ZN26CLR_RT_Persistence_Manager15InvalidateEntryEP30CLR_RT_HeapBlock_WeakReference
080251c0 T _ZN26CLR_RT_Persistence_Manager5FlushEv
080251bc T _ZN26CLR_RT_Persistence_Manager8RelocateEv
0805023c T _ZN26CLR_RT_ReflectionDef_Index18InitializeFromHashEj
08050868 T _ZN26CLR_RT_ReflectionDef_Index7ConvertER16CLR_RT_HeapBlockR23CLR_RT_TypeDef_InstancePj
08050248 T _ZN26CLR_RT_ReflectionDef_Index7ConvertER16CLR_RT_HeapBlockR24CLR_RT_Assembly_Instance
080502bc T _ZN26CLR_RT_ReflectionDef_Index7ConvertER16CLR_RT_HeapBlockR24CLR_RT_FieldDef_Instance
08050274 T _ZN26CLR_RT_ReflectionDef_Index7ConvertER16CLR_RT_HeapBlockR25CLR_RT_MethodDef_Instance
08050304 T _ZN26CLR_RT_ReflectionDef_Index7ConvertER16CLR_RT_HeapBlockRj
08056a58 T _ZN27CLR_RT_HeapBlock_BinaryBlob14CreateInstanceER16CLR_RT_HeapBlockjPFvPS_ES4_j
0804b354 T _ZN27CLR_RT_HeapBlock_BinaryBlob8RelocateEv
080666b0 T _ZN27CLR_RT_HeapBlock_I2CXAction10CopyBufferEPhjj
200061c8 B _ZN27CLR_RT_HeapBlock_I2CXAction10m_i2cPortsE
08066968 T _ZN27CLR_RT_HeapBlock_I2CXAction11IsCompletedEv
0806694c T _ZN27CLR_RT_HeapBlock_I2CXAction12IsTerminatedEv
08066858 T _ZN27CLR_RT_HeapBlock_I2CXAction14CreateInstanceER16CLR_RT_HeapBlockS1_
080665f8 T _ZN27CLR_RT_HeapBlock_I2CXAction14PrepareXActionER22I2C_USER_CONFIGURATIONj
080666e4 T _ZN27CLR_RT_HeapBlock_I2CXAction14ReleaseBuffersEv
08066760 T _ZN27CLR_RT_HeapBlock_I2CXAction15AllocateXActionEj
080665e0 T _ZN27CLR_RT_HeapBlock_I2CXAction15ExtractInstanceER16CLR_RT_HeapBlockRPS_
0806699c T _ZN27CLR_RT_HeapBlock_I2CXAction15TransactedBytesEv
08066984 T _ZN27CLR_RT_HeapBlock_I2CXAction17IsReadXActionUnitEj
08066638 T _ZN27CLR_RT_HeapBlock_I2CXAction18PrepareXActionUnitEPhjjb
08066820 T _ZN27CLR_RT_HeapBlock_I2CXAction21HandlerMethod_CleanUpEv
080665d4 T _ZN27CLR_RT_HeapBlock_I2CXAction24HandlerMethod_InitializeEv
080667e8 T _ZN27CLR_RT_HeapBlock_I2CXAction27HandlerMethod_RecoverFromGCEv
08066924 T _ZN27CLR_RT_HeapBlock_I2CXAction6CancelEb
080668f4 T _ZN27CLR_RT_HeapBlock_I2CXAction7EnqueueEv
08066930 T _ZN27CLR_RT_HeapBlock_I2CXAction9IsPendingEv
08054fe8 T _ZN27CLR_RT_ObjectToEvent_Source14CreateInstanceEP32CLR_RT_ObjectToEvent_DestinationR16CLR_RT_HeapBlockS3_
0804f7a8 T _ZN27CLR_RT_ObjectToEvent_Source15ExtractInstanceER16CLR_RT_HeapBlock
0804f7c4 T _ZN27CLR_RT_ObjectToEvent_Source6DetachEv
0804d710 T _ZN27CLR_RT_ObjectToEvent_Source8RelocateEv
080583e8 T _ZN30CLR_RT_HeapBlock_Delegate_List6ChangeER16CLR_RT_HeapBlockS1_S1_bb
08058780 T _ZN30CLR_RT_HeapBlock_Delegate_List6RemoveER16CLR_RT_HeapBlockS1_S1_
0805876c T _ZN30CLR_RT_HeapBlock_Delegate_List7CombineER16CLR_RT_HeapBlockS1_S1_b
0804d628 T _ZN30CLR_RT_HeapBlock_Delegate_List8RelocateEv
08052e5c T _ZN30CLR_RT_HeapBlock_WaitForObject12SignalObjectER16CLR_RT_HeapBlock
080563b0 T _ZN30CLR_RT_HeapBlock_WaitForObject13WaitForSignalER17CLR_RT_StackFrameRKxP16CLR_RT_HeapBlockjb
08056200 T _ZN30CLR_RT_HeapBlock_WaitForObject13WaitForSignalER17CLR_RT_StackFrameRKxR16CLR_RT_HeapBlock
0804eab4 T _ZN30CLR_RT_HeapBlock_WaitForObject16TryWaitForSignalEP13CLR_RT_ThreadP16CLR_RT_HeapBlockjb
0804d630 T _ZN30CLR_RT_HeapBlock_WaitForObject8RelocateEv
080251c4 T _ZN30CLR_RT_HeapBlock_WeakReference14CreateInstanceERPS_
08025358 T _ZN30CLR_RT_HeapBlock_WeakReference14RecoverObjectsER20CLR_RT_DblLinkedList
080252a8 T _ZN30CLR_RT_HeapBlock_WeakReference18PrepareForRecoveryEP21CLR_RT_HeapBlock_NodeS1_j
08025250 T _ZN30CLR_RT_HeapBlock_WeakReference21InsertInPriorityOrderEv
0802528c T _ZN30CLR_RT_HeapBlock_WeakReference8RelocateEv
08025240 T _ZN30CLR_RT_HeapBlock_WeakReference9GetTargetER16CLR_RT_HeapBlock
080251ec T _ZN30CLR_RT_HeapBlock_WeakReference9SetTargetER16CLR_RT_HeapBlock
08032688 T _ZN30PortableArrayKitUpdateProvider11GetPropertyEP8MFUpdatePKcPhPi
0803268c T _ZN30PortableArrayKitUpdateProvider11SetPropertyEP8MFUpdatePKcPhi
080327bc T _ZN30PortableArrayKitUpdateProvider13InstallUpdateEP8MFUpdatePhi
08032690 t _ZN30PortableArrayKitUpdateProvider13InstallUpdateEP8MFUpdatePhi.part.3
08032678 T _ZN30PortableArrayKitUpdateProvider16InitializeUpdateEP8MFUpdate
0805f780 T _ZN31Library_corlib_native_System_GC38AnyPendingFinalizers___STATIC__BOOLEANER17CLR_RT_StackFrame
0805f7c4 T _ZN31Library_corlib_native_System_GC39SuppressFinalize___STATIC__VOID__OBJECTER17CLR_RT_StackFrame
0805f7dc T _ZN31Library_corlib_native_System_GC44ReRegisterForFinalize___STATIC__VOID__OBJECTER17CLR_RT_StackFrame
0804f4c8 T _ZN32CLR_RT_ObjectToEvent_Destination10InitializeEv
0804f758 T _ZN32CLR_RT_ObjectToEvent_Destination15ReleaseWhenDeadEv
0804f740 T _ZN32CLR_RT_ObjectToEvent_Destination17IsReadyForReleaseEv
0804f4dc T _ZN32CLR_RT_ObjectToEvent_Destination8CheckAllEv
0804f6c0 T _ZN32CLR_RT_ObjectToEvent_Destination9DetachAllEv
0804f558 T _ZN32CLR_RT_ObjectToEvent_Destination9SignalAllEv
0805f944 T _ZN33Library_corlib_native_System_Math20Cos___STATIC__R8__R8ER17CLR_RT_StackFrame
0805f9c8 T _ZN33Library_corlib_native_System_Math20Exp___STATIC__R8__R8ER17CLR_RT_StackFrame
0805fa18 T _ZN33Library_corlib_native_System_Math20Log___STATIC__R8__R8ER17CLR_RT_StackFrame
0805fb1c T _ZN33Library_corlib_native_System_Math20Sin___STATIC__R8__R8ER17CLR_RT_StackFrame
0805fb94 T _ZN33Library_corlib_native_System_Math20Tan___STATIC__R8__R8ER17CLR_RT_StackFrame
0805f870 T _ZN33Library_corlib_native_System_Math21Acos___STATIC__R8__R8ER17CLR_RT_StackFrame
0805f898 T _ZN33Library_corlib_native_System_Math21Asin___STATIC__R8__R8ER17CLR_RT_StackFrame
0805f8c0 T _ZN33Library_corlib_native_System_Math21Atan___STATIC__R8__R8ER17CLR_RT_StackFrame
0805f96c T _ZN33Library_corlib_native_System_Math21Cosh___STATIC__R8__R8ER17CLR_RT_StackFrame
0805ecf8 T _ZN33Library_corlib_native_System_Math21Sign___STATIC__I4__R8ER17CLR_RT_StackFrame
0805fb44 T _ZN33Library_corlib_native_System_Math21Sinh___STATIC__R8__R8ER17CLR_RT_StackFrame
0805fb6c T _ZN33Library_corlib_native_System_Math21Sqrt___STATIC__R8__R8ER17CLR_RT_StackFrame
0805fbbc T _ZN33Library_corlib_native_System_Math21Tanh___STATIC__R8__R8ER17CLR_RT_StackFrame
0805f9f0 T _ZN33Library_corlib_native_System_Math22Floor___STATIC__R8__R8ER17CLR_RT_StackFrame
0805fa40 T _ZN33Library_corlib_native_System_Math22Log10___STATIC__R8__R8ER17CLR_RT_StackFrame
0805fa9c T _ZN33Library_corlib_native_System_Math22Round___STATIC__R8__R8ER17CLR_RT_StackFrame
0805f91c T _ZN33Library_corlib_native_System_Math24Ceiling___STATIC__R8__R8ER17CLR_RT_StackFrame
0805fa68 T _ZN33Library_corlib_native_System_Math24Pow___STATIC__R8__R8__R8ER17CLR_RT_StackFrame
0805fbe4 T _ZN33Library_corlib_native_System_Math25Truncate___STATIC__R8__R8ER17CLR_RT_StackFrame
0805f8e8 T _ZN33Library_corlib_native_System_Math26Atan2___STATIC__R8__R8__R8ER17CLR_RT_StackFrame
0805f994 T _ZN33Library_corlib_native_System_Math34IEEERemainder___STATIC__R8__R8__R8ER17CLR_RT_StackFrame
080606b0 T _ZN33Library_corlib_native_System_Type107InvokeMember___OBJECT__STRING__SystemReflectionBindingFlags__SystemReflectionBinder__OBJECT__SZARRAY_OBJECTER17CLR_RT_StackFrame
08065abc T _ZN33Library_corlib_native_System_Type10GetMethodsER17CLR_RT_StackFramePKcjP16CLR_RT_HeapBlockib
08064b20 t _ZN33Library_corlib_native_System_Type10GetMethodsER17CLR_RT_StackFramePKcjP16CLR_RT_HeapBlockib.constprop.60
08064760 T _ZN33Library_corlib_native_System_Type20get_IsEnum___BOOLEANER17CLR_RT_StackFrame
080623ac T _ZN33Library_corlib_native_System_Type21get_IsArray___BOOLEANER17CLR_RT_StackFrame
080647f4 T _ZN33Library_corlib_native_System_Type21get_IsClass___BOOLEANER17CLR_RT_StackFrame
08064840 T _ZN33Library_corlib_native_System_Type22get_IsPublic___BOOLEANER17CLR_RT_StackFrame
080648dc T _ZN33Library_corlib_native_System_Type24get_IsAbstract___BOOLEANER17CLR_RT_StackFrame
08064710 T _ZN33Library_corlib_native_System_Type25get_IsInterface___BOOLEANER17CLR_RT_StackFrame
08064890 T _ZN33Library_corlib_native_System_Type25get_IsNotPublic___BOOLEANER17CLR_RT_StackFrame
08064ed4 T _ZN33Library_corlib_native_System_Type25get_IsValueType___BOOLEANER17CLR_RT_StackFrame
080647b0 T _ZN33Library_corlib_native_System_Type28get_IsSerializable___BOOLEANER17CLR_RT_StackFrame
08062ec0 T _ZN33Library_corlib_native_System_Type30get_DeclaringType___SystemTypeER17CLR_RT_StackFrame
08060fd8 T _ZN33Library_corlib_native_System_Type34IsInstanceOfType___BOOLEAN__OBJECTER17CLR_RT_StackFrame
08064d18 T _ZN33Library_corlib_native_System_Type46GetMethod___SystemReflectionMethodInfo__STRINGER17CLR_RT_StackFrame
0805ea28 T _ZN33Library_corlib_native_System_Type63GetTypeFromHandle___STATIC__SystemType__SystemRuntimeTypeHandleER17CLR_RT_StackFrame
08065dec T _ZN33Library_corlib_native_System_Type66GetMethod___SystemReflectionMethodInfo__STRING__SZARRAY_SystemTypeER17CLR_RT_StackFrame
08064920 T _ZN33Library_corlib_native_System_Type68GetConstructor___SystemReflectionConstructorInfo__SZARRAY_SystemTypeER17CLR_RT_StackFrame
08061020 T _ZN33Library_corlib_native_System_Type73GetTypeInternal___STATIC__SystemType__STRING__STRING__BOOLEAN__SZARRAY_I4ER17CLR_RT_StackFrame
08064cf8 T _ZN33Library_corlib_native_System_Type76GetMethod___SystemReflectionMethodInfo__STRING__SystemReflectionBindingFlagsER17CLR_RT_StackFrame
08061208 T _ZN34Library_corlib_native_System_Array15get_Length___I4ER17CLR_RT_StackFrame
080618c0 T _ZN34Library_corlib_native_System_Array41Clear___STATIC__VOID__SystemArray__I4__I4ER17CLR_RT_StackFrame
0805ec78 T _ZN34Library_corlib_native_System_Array46System_Collections_IList_get_Item___OBJECT__I4ER17CLR_RT_StackFrame
08064f68 T _ZN34Library_corlib_native_System_Array4CopyER17CLR_RT_StackFrameR16CLR_RT_HeapBlockiS3_ii
08062a04 T _ZN34Library_corlib_native_System_Array52CreateInstance___STATIC__SystemArray__SystemType__I4ER17CLR_RT_StackFrame
0805ecbc T _ZN34Library_corlib_native_System_Array52System_Collections_IList_set_Item___VOID__I4__OBJECTER17CLR_RT_StackFrame
080616e8 T _ZN34Library_corlib_native_System_Array57Copy___STATIC__VOID__SystemArray__I4__SystemArray__I4__I4ER17CLR_RT_StackFrame
080619f4 T _ZN34Library_corlib_native_System_Array69TrySZIndexOf___STATIC__BOOLEAN__SystemArray__I4__I4__OBJECT__BYREF_I4ER17CLR_RT_StackFrame
0805f708 T _ZN35Library_corlib_native_System_Double27IsNaN___STATIC__BOOLEAN__R8ER17CLR_RT_StackFrame
0805f6ac T _ZN35Library_corlib_native_System_Double30CompareTo___STATIC__I4__R8__R8ER17CLR_RT_StackFrame
0805f6e0 T _ZN35Library_corlib_native_System_Double32IsInfinity___STATIC__BOOLEAN__R8ER17CLR_RT_StackFrame
0805f730 T _ZN35Library_corlib_native_System_Double40IsNegativeInfinity___STATIC__BOOLEAN__R8ER17CLR_RT_StackFrame
0805f758 T _ZN35Library_corlib_native_System_Double40IsPositiveInfinity___STATIC__BOOLEAN__R8ER17CLR_RT_StackFrame
0805fc18 T _ZN35Library_corlib_native_System_Number47FormatNative___STATIC__STRING__OBJECT__CHAR__I4ER17CLR_RT_StackFrame
0805fe44 T _ZN35Library_corlib_native_System_Object16GetHashCode___I4ER17CLR_RT_StackFrame
0805fe60 T _ZN35Library_corlib_native_System_Object20GetType___SystemTypeER17CLR_RT_StackFrame
08061694 T _ZN35Library_corlib_native_System_Object24Equals___BOOLEAN__OBJECTER17CLR_RT_StackFrame
0805fecc T _ZN35Library_corlib_native_System_Object24MemberwiseClone___OBJECTER17CLR_RT_StackFrame
0805fe0c T _ZN35Library_corlib_native_System_Object49ReferenceEquals___STATIC__BOOLEAN__OBJECT__OBJECTER17CLR_RT_StackFrame
08061984 T _ZN35Library_corlib_native_System_Random12_ctor___VOIDER17CLR_RT_StackFrame
0805ff58 T _ZN35Library_corlib_native_System_Random13Next___I4__I4ER17CLR_RT_StackFrame
0805ff94 T _ZN35Library_corlib_native_System_Random15NextDouble___R8ER17CLR_RT_StackFrame
080619b8 T _ZN35Library_corlib_native_System_Random16_ctor___VOID__I4ER17CLR_RT_StackFrame
0805ffbc T _ZN35Library_corlib_native_System_Random28NextBytes___VOID__SZARRAY_U1ER17CLR_RT_StackFrame
0805ff34 T _ZN35Library_corlib_native_System_Random9Next___I4ER17CLR_RT_StackFrame
08065830 T _ZN35Library_corlib_native_System_String13Trim___STRINGER17CLR_RT_StackFrame
08060aa4 T _ZN35Library_corlib_native_System_String15get_Length___I4ER17CLR_RT_StackFrame
080632a0 T _ZN35Library_corlib_native_System_String16ToLower___STRINGER17CLR_RT_StackFrame
080631b0 T _ZN35Library_corlib_native_System_String16ToUpper___STRINGER17CLR_RT_StackFrame
08065620 T _ZN35Library_corlib_native_System_String18IndexOf___I4__CHARER17CLR_RT_StackFrame
08060ae0 T _ZN35Library_corlib_native_System_String20get_Chars___CHAR__I4ER17CLR_RT_StackFrame
08065650 T _ZN35Library_corlib_native_System_String20IndexOf___I4__STRINGER17CLR_RT_StackFrame
08060c20 T _ZN35Library_corlib_native_System_String22_ctor___VOID__CHAR__I4ER17CLR_RT_StackFrame
080616b0 T _ZN35Library_corlib_native_System_String22CompareTo___I4__OBJECTER17CLR_RT_StackFrame
080616cc T _ZN35Library_corlib_native_System_String22CompareTo___I4__STRINGER17CLR_RT_StackFrame
08065628 T _ZN35Library_corlib_native_System_String22IndexOf___I4__CHAR__I4ER17CLR_RT_StackFrame
08065668 T _ZN35Library_corlib_native_System_String22LastIndexOf___I4__CHARER17CLR_RT_StackFrame
080634b0 T _ZN35Library_corlib_native_System_String22Substring___STRING__I4ER17CLR_RT_StackFrame
08065658 T _ZN35Library_corlib_native_System_String24IndexOf___I4__STRING__I4ER17CLR_RT_StackFrame
08065698 T _ZN35Library_corlib_native_System_String24LastIndexOf___I4__STRINGER17CLR_RT_StackFrame
08061ac4 T _ZN35Library_corlib_native_System_String26_ctor___VOID__SZARRAY_CHARER17CLR_RT_StackFrame
08065630 T _ZN35Library_corlib_native_System_String26IndexOf___I4__CHAR__I4__I4ER17CLR_RT_StackFrame
08065670 T _ZN35Library_corlib_native_System_String26LastIndexOf___I4__CHAR__I4ER17CLR_RT_StackFrame
080639d8 T _ZN35Library_corlib_native_System_String26Substring___STRING__I4__I4ER17CLR_RT_StackFrame
08063934 T _ZN35Library_corlib_native_System_String26ToCharArray___SZARRAY_CHARER17CLR_RT_StackFrame
08065824 T _ZN35Library_corlib_native_System_String27Trim___STRING__SZARRAY_CHARER17CLR_RT_StackFrame
08065660 T _ZN35Library_corlib_native_System_String28IndexOf___I4__STRING__I4__I4ER17CLR_RT_StackFrame
080656a0 T _ZN35Library_corlib_native_System_String28LastIndexOf___I4__STRING__I4ER17CLR_RT_StackFrame
08065638 T _ZN35Library_corlib_native_System_String29IndexOfAny___I4__SZARRAY_CHARER17CLR_RT_StackFrame
08065678 T _ZN35Library_corlib_native_System_String30LastIndexOf___I4__CHAR__I4__I4ER17CLR_RT_StackFrame
0806366c T _ZN35Library_corlib_native_System_String30TrimEnd___STRING__SZARRAY_CHARER17CLR_RT_StackFrame
080656a8 T _ZN35Library_corlib_native_System_String32LastIndexOf___I4__STRING__I4__I4ER17CLR_RT_StackFrame
0806379c T _ZN35Library_corlib_native_System_String32TrimStart___STRING__SZARRAY_CHARER17CLR_RT_StackFrame
08065640 T _ZN35Library_corlib_native_System_String33IndexOfAny___I4__SZARRAY_CHAR__I4ER17CLR_RT_StackFrame
08065680 T _ZN35Library_corlib_native_System_String33LastIndexOfAny___I4__SZARRAY_CHARER17CLR_RT_StackFrame
08061afc T _ZN35Library_corlib_native_System_String34_ctor___VOID__SZARRAY_CHAR__I4__I4ER17CLR_RT_StackFrame
08063f4c T _ZN35Library_corlib_native_System_String34ToCharArray___SZARRAY_CHAR__I4__I4ER17CLR_RT_StackFrame
0805f640 T _ZN35Library_corlib_native_System_String36Compare___STATIC__I4__STRING__STRINGER17CLR_RT_StackFrame
08065a48 T _ZN35Library_corlib_native_System_String36Split___SZARRAY_STRING__SZARRAY_CHARER17CLR_RT_StackFrame
08065648 T _ZN35Library_corlib_native_System_String37IndexOfAny___I4__SZARRAY_CHAR__I4__I4ER17CLR_RT_StackFrame
08065688 T _ZN35Library_corlib_native_System_String37LastIndexOfAny___I4__SZARRAY_CHAR__I4ER17CLR_RT_StackFrame
08061280 T _ZN35Library_corlib_native_System_String39Concat___STATIC__STRING__STRING__STRINGER17CLR_RT_StackFrame
08062f50 T _ZN35Library_corlib_native_System_String39Concat___STATIC__STRING__SZARRAY_STRINGER17CLR_RT_StackFrame
0805f620 T _ZN35Library_corlib_native_System_String40Equals___STATIC__BOOLEAN__STRING__STRINGER17CLR_RT_StackFrame
08065a54 T _ZN35Library_corlib_native_System_String40Split___SZARRAY_STRING__SZARRAY_CHAR__I4ER17CLR_RT_StackFrame
08065690 T _ZN35Library_corlib_native_System_String41LastIndexOfAny___I4__SZARRAY_CHAR__I4__I4ER17CLR_RT_StackFrame
080617f0 T _ZN35Library_corlib_native_System_String45op_Equality___STATIC__BOOLEAN__STRING__STRINGER17CLR_RT_StackFrame
08061334 T _ZN35Library_corlib_native_System_String47Concat___STATIC__STRING__STRING__STRING__STRINGER17CLR_RT_StackFrame
0806195c T _ZN35Library_corlib_native_System_String47op_Inequality___STATIC__BOOLEAN__STRING__STRINGER17CLR_RT_StackFrame
080656b0 T _ZN35Library_corlib_native_System_String4TrimER17CLR_RT_StackFrameP22CLR_RT_HeapBlock_Arraybb
0806144c T _ZN35Library_corlib_native_System_String55Concat___STATIC__STRING__STRING__STRING__STRING__STRINGER17CLR_RT_StackFrame
0806583c T _ZN35Library_corlib_native_System_String5SplitER17CLR_RT_StackFrameR16CLR_RT_HeapBlocki
080653e4 T _ZN35Library_corlib_native_System_String7IndexOfER17CLR_RT_StackFramei
08064fa4 T _ZN37Library_corlib_native_System_DateTime11GetValuePtrER16CLR_RT_HeapBlock
08061cf4 T _ZN37Library_corlib_native_System_DateTime12get_Day___I4ER17CLR_RT_StackFrame
08061d60 T _ZN37Library_corlib_native_System_DateTime13get_Hour___I4ER17CLR_RT_StackFrame
08061dcc T _ZN37Library_corlib_native_System_DateTime13get_Year___I4ER17CLR_RT_StackFrame
08061e38 T _ZN37Library_corlib_native_System_DateTime14get_Month___I4ER17CLR_RT_StackFrame
08061f7c T _ZN37Library_corlib_native_System_DateTime15get_Minute___I4ER17CLR_RT_StackFrame
08061ea4 T _ZN37Library_corlib_native_System_DateTime15get_Second___I4ER17CLR_RT_StackFrame
08064350 T _ZN37Library_corlib_native_System_DateTime18get_DayOfYear___I4ER17CLR_RT_StackFrame
08061f10 T _ZN37Library_corlib_native_System_DateTime20get_Millisecond___I4ER17CLR_RT_StackFrame
08062b44 T _ZN37Library_corlib_native_System_DateTime28ToLocalTime___SystemDateTimeER17CLR_RT_StackFrame
08061fe8 T _ZN37Library_corlib_native_System_DateTime31get_DayOfWeek___SystemDayOfWeekER17CLR_RT_StackFrame
0805f56c T _ZN37Library_corlib_native_System_DateTime32DaysInMonth___STATIC__I4__I4__I4ER17CLR_RT_StackFrame
0805f594 T _ZN37Library_corlib_native_System_DateTime32get_Now___STATIC__SystemDateTimeER17CLR_RT_StackFrame
08062be4 T _ZN37Library_corlib_native_System_DateTime32ToUniversalTime___SystemDateTimeER17CLR_RT_StackFrame
0805f5dc T _ZN37Library_corlib_native_System_DateTime34get_Today___STATIC__SystemDateTimeER17CLR_RT_StackFrame
0805f5b8 T _ZN37Library_corlib_native_System_DateTime35get_UtcNow___STATIC__SystemDateTimeER17CLR_RT_StackFrame
08063048 T _ZN37Library_corlib_native_System_DateTime40_ctor___VOID__I4__I4__I4__I4__I4__I4__I4ER17CLR_RT_StackFrame
0806163c T _ZN37Library_corlib_native_System_Delegate19get_Target___OBJECTER17CLR_RT_StackFrame
08061810 T _ZN37Library_corlib_native_System_Delegate24Equals___BOOLEAN__OBJECTER17CLR_RT_StackFrame
08061228 T _ZN37Library_corlib_native_System_Delegate39get_Method___SystemReflectionMethodInfoER17CLR_RT_StackFrame
08061880 T _ZN37Library_corlib_native_System_Delegate61op_Equality___STATIC__BOOLEAN__SystemDelegate__SystemDelegateER17CLR_RT_StackFrame
08061858 T _ZN37Library_corlib_native_System_Delegate63op_Inequality___STATIC__BOOLEAN__SystemDelegate__SystemDelegateER17CLR_RT_StackFrame
0805f674 T _ZN37Library_corlib_native_System_Delegate63Remove___STATIC__SystemDelegate__SystemDelegate__SystemDelegateER17CLR_RT_StackFrame
0805f65c T _ZN37Library_corlib_native_System_Delegate64Combine___STATIC__SystemDelegate__SystemDelegate__SystemDelegateER17CLR_RT_StackFrame
08065a80 T _ZN37Library_corlib_native_System_TimeSpan11GetValuePtrER16CLR_RT_HeapBlock
080638cc T _ZN37Library_corlib_native_System_TimeSpan17ToString___STRINGER17CLR_RT_StackFrame
08063ad0 T _ZN37Library_corlib_native_System_TimeSpan22CompareTo___I4__OBJECTER17CLR_RT_StackFrame
08063c74 T _ZN37Library_corlib_native_System_TimeSpan24_ctor___VOID__I4__I4__I4ER17CLR_RT_StackFrame
08063b98 T _ZN37Library_corlib_native_System_TimeSpan24Equals___BOOLEAN__OBJECTER17CLR_RT_StackFrame
08063d40 T _ZN37Library_corlib_native_System_TimeSpan28_ctor___VOID__I4__I4__I4__I4ER17CLR_RT_StackFrame
08064004 T _ZN37Library_corlib_native_System_TimeSpan32_ctor___VOID__I4__I4__I4__I4__I4ER17CLR_RT_StackFrame
08064294 T _ZN37Library_corlib_native_System_TimeSpan52Compare___STATIC__I4__SystemTimeSpan__SystemTimeSpanER17CLR_RT_StackFrame
080630ec T _ZN37Library_corlib_native_System_TimeSpan56Equals___STATIC__BOOLEAN__SystemTimeSpan__SystemTimeSpanER17CLR_RT_StackFrame
08065a60 T _ZN37Library_corlib_native_System_TimeSpan9NewObjectER17CLR_RT_StackFrame
0805f544 T _ZN37Library_corlib_native_System_TimeZone30GetTimeZoneOffset___STATIC__I8ER17CLR_RT_StackFrame
08066518 T _ZN38CLR_RT_HeapBlock_NativeEventDispatcher13StartDispatchEP27CLR_RT_ApplicationInterruptP13CLR_RT_Thread
0806621c T _ZN38CLR_RT_HeapBlock_NativeEventDispatcher14CreateInstanceER16CLR_RT_HeapBlockS1_
0806637c T _ZN38CLR_RT_HeapBlock_NativeEventDispatcher14SaveToHALQueueEjj
080662a4 T _ZN38CLR_RT_HeapBlock_NativeEventDispatcher18RemoveFromHALQueueEv
080665b4 T _ZN38CLR_RT_HeapBlock_NativeEventDispatcher20RecoverManagedObjectERP16CLR_RT_HeapBlock
08066178 T _ZN38CLR_RT_HeapBlock_NativeEventDispatcher21HandlerMethod_CleanUpEv
080660d0 T _ZN38CLR_RT_HeapBlock_NativeEventDispatcher24HandlerMethod_InitializeEv
080660a0 T _ZN38CLR_RT_HeapBlock_NativeEventDispatcher25ThreadTerminationCallbackEPv
080660dc T _ZN38CLR_RT_HeapBlock_NativeEventDispatcher27HandlerMethod_RecoverFromGCEv
0806607c T _ZN38CLR_RT_HeapBlock_NativeEventDispatcher29RTOSThreadTerminationCallbackEPv
200061bc B _ZN38CLR_RT_HeapBlock_NativeEventDispatcher9m_ioPortsE
08062d48 T _ZN38Library_corlib_native_System_AppDomain38Unload___STATIC__VOID__SystemAppDomainER17CLR_RT_StackFrame
0805ebbc T _ZN38Library_corlib_native_System_AppDomain46CreateDomain___STATIC__SystemAppDomain__STRINGER17CLR_RT_StackFrame
08062e38 T _ZN38Library_corlib_native_System_AppDomain48GetAssemblies___SZARRAY_SystemReflectionAssemblyER17CLR_RT_StackFrame
08063e18 T _ZN38Library_corlib_native_System_AppDomain72LoadInternal___SystemReflectionAssembly__STRING__BOOLEAN__I4__I4__I4__I4ER17CLR_RT_StackFrame
080652a8 T _ZN38Library_corlib_native_System_Exception13GetStackTraceEP16CLR_RT_HeapBlockRj
08065200 T _ZN38Library_corlib_native_System_Exception13SetStackTraceER16CLR_RT_HeapBlockP17CLR_RT_StackFrame
080650d0 T _ZN38Library_corlib_native_System_Exception14CreateInstanceER16CLR_RT_HeapBlockiP17CLR_RT_StackFrame
08064fe0 T _ZN38Library_corlib_native_System_Exception14CreateInstanceER16CLR_RT_HeapBlockRK20CLR_RT_TypeDef_IndexiP17CLR_RT_StackFrame
08064d38 T _ZN38Library_corlib_native_System_Exception23get_StackTrace___STRINGER17CLR_RT_StackFrame
08065290 T _ZN38Library_corlib_native_System_Exception9GetTargetER16CLR_RT_HeapBlock
0805fe28 T _ZN38Library_corlib_native_System_ValueType24Equals___BOOLEAN__OBJECTER17CLR_RT_StackFrame
08066ee4 T _ZN39Library_spot_native_Microsoft_SPOT_Math20Cos___STATIC__I4__I4ER17CLR_RT_StackFrame
08066f30 T _ZN39Library_spot_native_Microsoft_SPOT_Math20Sin___STATIC__I4__I4ER17CLR_RT_StackFrame
20001ba4 V _ZN3MACI23IEEE802_15_4_Message_t29MACConfigE10AppIDIndexE
20001ba8 V _ZN3MACI23IEEE802_15_4_Message_t29MACConfigE11AppHandlersE
20002fec V _ZN3MACI23IEEE802_15_4_Message_t29MACConfigE17NativeAppHandlersE
08065390 T _ZN40Library_corlib_native_System_RuntimeType17get_Name___STRINGER17CLR_RT_StackFrame
08065314 T _ZN40Library_corlib_native_System_RuntimeType17GetTypeDescriptorER16CLR_RT_HeapBlockR23CLR_RT_TypeDef_Instance
080653b8 T _ZN40Library_corlib_native_System_RuntimeType21get_FullName___STRINGER17CLR_RT_StackFrame
08060a14 T _ZN40Library_corlib_native_System_RuntimeType25get_BaseType___SystemTypeER17CLR_RT_StackFrame
08060960 T _ZN40Library_corlib_native_System_RuntimeType27GetElementType___SystemTypeER17CLR_RT_StackFrame
08063404 T _ZN40Library_corlib_native_System_RuntimeType34GetInterfaces___SZARRAY_SystemTypeER17CLR_RT_StackFrame
080609c0 T _ZN40Library_corlib_native_System_RuntimeType39get_Assembly___SystemReflectionAssemblyER17CLR_RT_StackFrame
08062400 T _ZN40Library_corlib_native_System_RuntimeType74GetField___SystemReflectionFieldInfo__STRING__SystemReflectionBindingFlagsER17CLR_RT_StackFrame
08062054 T _ZN40Library_corlib_native_System_RuntimeType75GetFields___SZARRAY_SystemReflectionFieldInfo__SystemReflectionBindingFlagsER17CLR_RT_StackFrame
080621f0 T _ZN40Library_corlib_native_System_RuntimeType77GetMethods___SZARRAY_SystemReflectionMethodInfo__SystemReflectionBindingFlagsER17CLR_RT_StackFrame
08065344 T _ZN40Library_corlib_native_System_RuntimeType7GetNameER16CLR_RT_HeapBlockbS1_
08067c4c T _ZN40Library_spot_native_Microsoft_SPOT_Debug24GC___STATIC__U4__BOOLEANER17CLR_RT_StackFrame
08066e84 T _ZN40Library_spot_native_Microsoft_SPOT_Debug28Print___STATIC__VOID__STRINGER17CLR_RT_StackFrame
08066e54 T _ZN40Library_spot_native_Microsoft_SPOT_Debug40EnableGCMessages___STATIC__VOID__BOOLEANER17CLR_RT_StackFrame
0805efac T _ZN41Library_corlib_native_System_BitConverter33GetBytes___STATIC__SZARRAY_U1__I2ER17CLR_RT_StackFrame
0805ef30 T _ZN41Library_corlib_native_System_BitConverter33GetBytes___STATIC__SZARRAY_U1__I4ER17CLR_RT_StackFrame
0805ef6c T _ZN41Library_corlib_native_System_BitConverter33GetBytes___STATIC__SZARRAY_U1__I8ER17CLR_RT_StackFrame
0805eef4 T _ZN41Library_corlib_native_System_BitConverter33GetBytes___STATIC__SZARRAY_U1__R4ER17CLR_RT_StackFrame
0805eea8 T _ZN41Library_corlib_native_System_BitConverter33GetBytes___STATIC__SZARRAY_U1__R8ER17CLR_RT_StackFrame
0805f068 T _ZN41Library_corlib_native_System_BitConverter33GetBytes___STATIC__SZARRAY_U1__U2ER17CLR_RT_StackFrame
0805efec T _ZN41Library_corlib_native_System_BitConverter33GetBytes___STATIC__SZARRAY_U1__U4ER17CLR_RT_StackFrame
0805f028 T _ZN41Library_corlib_native_System_BitConverter33GetBytes___STATIC__SZARRAY_U1__U8ER17CLR_RT_StackFrame
0805f164 T _ZN41Library_corlib_native_System_BitConverter34DoubleToInt64Bits___STATIC__I8__R8ER17CLR_RT_StackFrame
0805f1c4 T _ZN41Library_corlib_native_System_BitConverter34Int64BitsToDouble___STATIC__R8__I8ER17CLR_RT_StackFrame
0805ee6c T _ZN41Library_corlib_native_System_BitConverter35GetBytes___STATIC__SZARRAY_U1__CHARER17CLR_RT_StackFrame
0805f0a4 T _ZN41Library_corlib_native_System_BitConverter36get_IsLittleEndian___STATIC__BOOLEANER17CLR_RT_StackFrame
0805f24c T _ZN41Library_corlib_native_System_BitConverter36ToInt16___STATIC__I2__SZARRAY_U1__I4ER17CLR_RT_StackFrame
0805ed40 T _ZN41Library_corlib_native_System_BitConverter36ToInt32___STATIC__I4__SZARRAY_U1__I4ER17CLR_RT_StackFrame
0805f188 T _ZN41Library_corlib_native_System_BitConverter36ToInt64___STATIC__I8__SZARRAY_U1__I4ER17CLR_RT_StackFrame
0805f210 T _ZN41Library_corlib_native_System_BitConverter37ToChar___STATIC__CHAR__SZARRAY_U1__I4ER17CLR_RT_StackFrame
0805f1d4 T _ZN41Library_corlib_native_System_BitConverter37ToDouble___STATIC__R8__SZARRAY_U1__I4ER17CLR_RT_StackFrame
0805f2c4 T _ZN41Library_corlib_native_System_BitConverter37ToSingle___STATIC__R4__SZARRAY_U1__I4ER17CLR_RT_StackFrame
08062c90 T _ZN41Library_corlib_native_System_BitConverter37ToString___STATIC__STRING__SZARRAY_U1ER17CLR_RT_StackFrame
0805f288 T _ZN41Library_corlib_native_System_BitConverter37ToUInt16___STATIC__U2__SZARRAY_U1__I4ER17CLR_RT_StackFrame
0805f2fc T _ZN41Library_corlib_native_System_BitConverter37ToUInt32___STATIC__U4__SZARRAY_U1__I4ER17CLR_RT_StackFrame
0805f334 T _ZN41Library_corlib_native_System_BitConverter37ToUInt64___STATIC__U8__SZARRAY_U1__I4ER17CLR_RT_StackFrame
0805ee28 T _ZN41Library_corlib_native_System_BitConverter38GetBytes___STATIC__SZARRAY_U1__BOOLEANER17CLR_RT_StackFrame
08062924 T _ZN41Library_corlib_native_System_BitConverter41ToString___STATIC__STRING__SZARRAY_U1__I4ER17CLR_RT_StackFrame
0805f0e8 T _ZN41Library_corlib_native_System_BitConverter43ToBoolean___STATIC__BOOLEAN__SZARRAY_U1__I4ER17CLR_RT_StackFrame
08062a50 T _ZN41Library_corlib_native_System_BitConverter45ToString___STATIC__STRING__SZARRAY_U1__I4__I4ER17CLR_RT_StackFrame
08061174 T _ZN42Library_corlib_native_System_WeakReference19get_Target___OBJECTER17CLR_RT_StackFrame
08061190 T _ZN42Library_corlib_native_System_WeakReference20_ctor___VOID__OBJECTER17CLR_RT_StackFrame
0805f0c8 T _ZN42Library_corlib_native_System_WeakReference21get_IsAlive___BOOLEANER17CLR_RT_StackFrame
08061680 T _ZN42Library_corlib_native_System_WeakReference25set_Target___VOID__OBJECTER17CLR_RT_StackFrame
08060f68 T _ZN44Library_corlib_native_System_Threading_Timer14Dispose___VOIDER17CLR_RT_StackFrame
08060f88 T _ZN44Library_corlib_native_System_Threading_Timer24Change___BOOLEAN__I4__I4ER17CLR_RT_StackFrame
08060fb0 T _ZN44Library_corlib_native_System_Threading_Timer48Change___BOOLEAN__SystemTimeSpan__SystemTimeSpanER17CLR_RT_StackFrame
08060f78 T _ZN44Library_corlib_native_System_Threading_Timer58_ctor___VOID__SystemThreadingTimerCallback__OBJECT__I4__I4ER17CLR_RT_StackFrame
08060f80 T _ZN44Library_corlib_native_System_Threading_Timer82_ctor___VOID__SystemThreadingTimerCallback__OBJECT__SystemTimeSpan__SystemTimeSpanER17CLR_RT_StackFrame
08060b64 T _ZN45Library_corlib_native_System_Text_UTF8Decoder100Convert___VOID__SZARRAY_U1__I4__I4__SZARRAY_CHAR__I4__I4__BOOLEAN__BYREF_I4__BYREF_I4__BYREF_BOOLEANER17CLR_RT_StackFrame
08063390 T _ZN45Library_corlib_native_System_Threading_Thread11Join___VOIDER17CLR_RT_StackFrame
08061a88 T _ZN45Library_corlib_native_System_Threading_Thread12Abort___VOIDER17CLR_RT_StackFrame
08061724 T _ZN45Library_corlib_native_System_Threading_Thread12Start___VOIDER17CLR_RT_StackFrame
08061a5c T _ZN45Library_corlib_native_System_Threading_Thread13Resume___VOIDER17CLR_RT_StackFrame
08061c38 T _ZN45Library_corlib_native_System_Threading_Thread14Suspend___VOIDER17CLR_RT_StackFrame
080645d0 T _ZN45Library_corlib_native_System_Threading_Thread18Join___BOOLEAN__I4ER17CLR_RT_StackFrame
0805f114 T _ZN45Library_corlib_native_System_Threading_Thread21get_IsAlive___BOOLEANER17CLR_RT_StackFrame
0805ece0 T _ZN45Library_corlib_native_System_Threading_Thread24get_ManagedThreadId___I4ER17CLR_RT_StackFrame
080611a4 T _ZN45Library_corlib_native_System_Threading_Thread24Sleep___STATIC__VOID__I4ER17CLR_RT_StackFrame
0806464c T _ZN45Library_corlib_native_System_Threading_Thread30Join___BOOLEAN__SystemTimeSpanER17CLR_RT_StackFrame
0805eab8 T _ZN45Library_corlib_native_System_Threading_Thread35GetDomain___STATIC__SystemAppDomainER17CLR_RT_StackFrame
08060e78 T _ZN45Library_corlib_native_System_Threading_Thread40_ctor___VOID__SystemThreadingThreadStartER17CLR_RT_StackFrame
0805ed78 T _ZN45Library_corlib_native_System_Threading_Thread44get_Priority___SystemThreadingThreadPriorityER17CLR_RT_StackFrame
0805edb8 T _ZN45Library_corlib_native_System_Threading_Thread44get_ThreadState___SystemThreadingThreadStateER17CLR_RT_StackFrame
08060eb8 T _ZN45Library_corlib_native_System_Threading_Thread49get_CurrentThread___STATIC__SystemThreadingThreadER17CLR_RT_StackFrame
08061c90 T _ZN45Library_corlib_native_System_Threading_Thread50set_Priority___VOID__SystemThreadingThreadPriorityER17CLR_RT_StackFrame
0806cee8 T _ZN45Library_SamrakshEmote_Samraksh_eMote_Platform59GetPlatformTypeInternal___STATIC__SamraksheMotePLATFORMTYPEER17CLR_RT_StackFrame
080677a4 T _ZN45Library_spot_native_Microsoft_SPOT_Reflection116GetAssemblyMemoryInfo___STATIC__BOOLEAN__mscorlibSystemReflectionAssembly__MicrosoftSPOTReflectionAssemblyMemoryInfoER17CLR_RT_StackFrame
08067258 T _ZN45Library_spot_native_Microsoft_SPOT_Reflection44GetTypeHash___STATIC__U4__mscorlibSystemTypeER17CLR_RT_StackFrame
080679d0 T _ZN45Library_spot_native_Microsoft_SPOT_Reflection48GetTypeFromHash___STATIC__mscorlibSystemType__U4ER17CLR_RT_StackFrame
08067634 T _ZN45Library_spot_native_Microsoft_SPOT_Reflection50IsTypeLoaded___STATIC__BOOLEAN__mscorlibSystemTypeER17CLR_RT_StackFrame
0806ac18 T _ZN45Library_spot_native_Microsoft_SPOT_Reflection58Serialize___STATIC__SZARRAY_U1__OBJECT__mscorlibSystemTypeER17CLR_RT_StackFrame
0806ac1c T _ZN45Library_spot_native_Microsoft_SPOT_Reflection60Deserialize___STATIC__OBJECT__SZARRAY_U1__mscorlibSystemTypeER17CLR_RT_StackFrame
08067654 T _ZN45Library_spot_native_Microsoft_SPOT_Reflection62GetAssemblyHash___STATIC__U4__mscorlibSystemReflectionAssemblyER17CLR_RT_StackFrame
08067680 T _ZN45Library_spot_native_Microsoft_SPOT_Reflection64GetAssemblies___STATIC__SZARRAY_mscorlibSystemReflectionAssemblyER17CLR_RT_StackFrame
08067a2c T _ZN45Library_spot_native_Microsoft_SPOT_Reflection66GetAssemblyFromHash___STATIC__mscorlibSystemReflectionAssembly__U4ER17CLR_RT_StackFrame
080676b0 T _ZN45Library_spot_native_Microsoft_SPOT_Reflection82GetAssemblyInfo___STATIC__BOOLEAN__SZARRAY_U1__MicrosoftSPOTReflectionAssemblyInfoER17CLR_RT_StackFrame
080674d0 T _ZN45Library_spot_native_Microsoft_SPOT_Reflection86GetTypesImplementingInterface___STATIC__SZARRAY_mscorlibSystemType__mscorlibSystemTypeER17CLR_RT_StackFrame
0805f44c T _ZN46Library_corlib_native_System_Collections_Queue12Clear___VOIDER17CLR_RT_StackFrame
0805f49c T _ZN46Library_corlib_native_System_Collections_Queue13Peek___OBJECTER17CLR_RT_StackFrame
0805f470 T _ZN46Library_corlib_native_System_Collections_Queue16Dequeue___OBJECTER17CLR_RT_StackFrame
0805f45c T _ZN46Library_corlib_native_System_Collections_Queue22Enqueue___VOID__OBJECTER17CLR_RT_StackFrame
0805f430 T _ZN46Library_corlib_native_System_Collections_Queue30CopyTo___VOID__SystemArray__I4ER17CLR_RT_StackFrame
0805f4c8 T _ZN46Library_corlib_native_System_Collections_Stack12Clear___VOIDER17CLR_RT_StackFrame
0805f504 T _ZN46Library_corlib_native_System_Collections_Stack12Pop___OBJECTER17CLR_RT_StackFrame
0805f4d8 T _ZN46Library_corlib_native_System_Collections_Stack13Peek___OBJECTER17CLR_RT_StackFrame
0805f530 T _ZN46Library_corlib_native_System_Collections_Stack19Push___VOID__OBJECTER17CLR_RT_StackFrame
080618a0 T _ZN46Library_corlib_native_System_MulticastDelegate79op_Equality___STATIC__BOOLEAN__SystemMulticastDelegate__SystemMulticastDelegateER17CLR_RT_StackFrame
08061830 T _ZN46Library_corlib_native_System_MulticastDelegate81op_Inequality___STATIC__BOOLEAN__SystemMulticastDelegate__SystemMulticastDelegateER17CLR_RT_StackFrame
08060054 T _ZN46Library_corlib_native_System_Text_UTF8Encoding29GetBytes___SZARRAY_U1__STRINGER17CLR_RT_StackFrame
080643d8 T _ZN46Library_corlib_native_System_Text_UTF8Encoding35GetChars___SZARRAY_CHAR__SZARRAY_U1ER17CLR_RT_StackFrame
080644c8 T _ZN46Library_corlib_native_System_Text_UTF8Encoding43GetChars___SZARRAY_CHAR__SZARRAY_U1__I4__I4ER17CLR_RT_StackFrame
0805ffe0 T _ZN46Library_corlib_native_System_Text_UTF8Encoding45GetBytes___I4__STRING__I4__I4__SZARRAY_U1__I4ER17CLR_RT_StackFrame
08060e54 T _ZN46Library_corlib_native_System_Threading_Monitor27Exit___STATIC__VOID__OBJECTER17CLR_RT_StackFrame
08060dfc T _ZN46Library_corlib_native_System_Threading_Monitor28Enter___STATIC__VOID__OBJECTER17CLR_RT_StackFrame
08067ac8 T _ZN47Library_spot_native_Microsoft_SPOT_WeakDelegate87Remove___STATIC__mscorlibSystemDelegate__mscorlibSystemDelegate__mscorlibSystemDelegateER17CLR_RT_StackFrame
08067ab0 T _ZN47Library_spot_native_Microsoft_SPOT_WeakDelegate88Combine___STATIC__mscorlibSystemDelegate__mscorlibSystemDelegate__mscorlibSystemDelegateER17CLR_RT_StackFrame
080652bc T _ZN48Library_corlib_native_System_Reflection_Assembly17GetTypeDescriptorER16CLR_RT_HeapBlockR24CLR_RT_Assembly_Instance
08060178 T _ZN48Library_corlib_native_System_Reflection_Assembly21get_FullName___STRINGER17CLR_RT_StackFrame
080601d8 T _ZN48Library_corlib_native_System_Reflection_Assembly28GetType___SystemType__STRINGER17CLR_RT_StackFrame
08060260 T _ZN48Library_corlib_native_System_Reflection_Assembly29GetTypes___SZARRAY_SystemTypeER17CLR_RT_StackFrame
0806032c T _ZN48Library_corlib_native_System_Reflection_Assembly41GetManifestResourceNames___SZARRAY_STRINGER17CLR_RT_StackFrame
080600b0 T _ZN48Library_corlib_native_System_Reflection_Assembly51Load___STATIC__SystemReflectionAssembly__SZARRAY_U1ER17CLR_RT_StackFrame
0805ea60 T _ZN48Library_corlib_native_System_Reflection_Assembly55GetExecutingAssembly___STATIC__SystemReflectionAssemblyER17CLR_RT_StackFrame
080602e0 T _ZN48Library_corlib_native_System_Reflection_Assembly57GetVersion___VOID__BYREF_I4__BYREF_I4__BYREF_I4__BYREF_I4ER17CLR_RT_StackFrame
0805eadc T _ZN48Library_corlib_native_System_Reflection_Assembly80LoadInternal___STATIC__SystemReflectionAssembly__STRING__BOOLEAN__I4__I4__I4__I4ER17CLR_RT_StackFrame
08067080 T _ZN48Library_spot_native_Microsoft_SPOT_ExtendedTimer106_ctor___VOID__mscorlibSystemThreadingTimerCallback__OBJECT__mscorlibSystemDateTime__mscorlibSystemTimeSpanER17CLR_RT_StackFrame
08067078 T _ZN48Library_spot_native_Microsoft_SPOT_ExtendedTimer106_ctor___VOID__mscorlibSystemThreadingTimerCallback__OBJECT__mscorlibSystemTimeSpan__mscorlibSystemTimeSpanER17CLR_RT_StackFrame
08067060 T _ZN48Library_spot_native_Microsoft_SPOT_ExtendedTimer14Dispose___VOIDER17CLR_RT_StackFrame
080670a0 T _ZN48Library_spot_native_Microsoft_SPOT_ExtendedTimer21Change___VOID__I4__I4ER17CLR_RT_StackFrame
0806702c T _ZN48Library_spot_native_Microsoft_SPOT_ExtendedTimer43get_LastExpiration___mscorlibSystemTimeSpanER17CLR_RT_StackFrame
080670b0 T _ZN48Library_spot_native_Microsoft_SPOT_ExtendedTimer61Change___VOID__mscorlibSystemDateTime__mscorlibSystemTimeSpanER17CLR_RT_StackFrame
080670a8 T _ZN48Library_spot_native_Microsoft_SPOT_ExtendedTimer61Change___VOID__mscorlibSystemTimeSpan__mscorlibSystemTimeSpanER17CLR_RT_StackFrame
08067070 T _ZN48Library_spot_native_Microsoft_SPOT_ExtendedTimer66_ctor___VOID__mscorlibSystemThreadingTimerCallback__OBJECT__I4__I4ER17CLR_RT_StackFrame
08067088 T _ZN48Library_spot_native_Microsoft_SPOT_ExtendedTimer96_ctor___VOID__mscorlibSystemThreadingTimerCallback__OBJECT__MicrosoftSPOTExtendedTimerTimeEventsER17CLR_RT_StackFrame
0805f688 T _ZN49Library_corlib_native_System_Diagnostics_Debugger20Break___STATIC__VOIDER17CLR_RT_StackFrame
0805f0b0 T _ZN49Library_corlib_native_System_Diagnostics_Debugger32get_IsAttached___STATIC__BOOLEANER17CLR_RT_StackFrame
080640ec T _ZN49Library_corlib_native_System_Reflection_FieldInfo31SetValue___VOID__OBJECT__OBJECTER17CLR_RT_StackFrame
080617a4 T _ZN49Library_corlib_native_System_Threading_WaitHandle30WaitOne___BOOLEAN__I4__BOOLEANER17CLR_RT_StackFrame
08061900 T _ZN49Library_corlib_native_System_Threading_WaitHandle82WaitMultiple___STATIC__I4__SZARRAY_SystemThreadingWaitHandle__I4__BOOLEAN__BOOLEANER17CLR_RT_StackFrame
0805f3e4 T _ZN50Library_corlib_native_System_Collections_ArrayList12Clear___VOIDER17CLR_RT_StackFrame
0805f3b4 T _ZN50Library_corlib_native_System_Collections_ArrayList16Add___I4__OBJECTER17CLR_RT_StackFrame
0805f408 T _ZN50Library_corlib_native_System_Collections_ArrayList19RemoveAt___VOID__I4ER17CLR_RT_StackFrame
0805f370 T _ZN50Library_corlib_native_System_Collections_ArrayList21get_Item___OBJECT__I4ER17CLR_RT_StackFrame
0805f41c T _ZN50Library_corlib_native_System_Collections_ArrayList22SetCapacity___VOID__I4ER17CLR_RT_StackFrame
0805f3f4 T _ZN50Library_corlib_native_System_Collections_ArrayList25Insert___VOID__I4__OBJECTER17CLR_RT_StackFrame
0805f3a0 T _ZN50Library_corlib_native_System_Collections_ArrayList27set_Item___VOID__I4__OBJECTER17CLR_RT_StackFrame
08060624 T _ZN50Library_corlib_native_System_Reflection_MethodBase17get_Name___STRINGER17CLR_RT_StackFrame
08061ba8 T _ZN50Library_corlib_native_System_Reflection_MethodBase21get_IsFinal___BOOLEANER17CLR_RT_StackFrame
08061b40 T _ZN50Library_corlib_native_System_Reflection_MethodBase22get_IsPublic___BOOLEANER17CLR_RT_StackFrame
08061b78 T _ZN50Library_corlib_native_System_Reflection_MethodBase22get_IsStatic___BOOLEANER17CLR_RT_StackFrame
08061bd8 T _ZN50Library_corlib_native_System_Reflection_MethodBase23get_IsVirtual___BOOLEANER17CLR_RT_StackFrame
08061c08 T _ZN50Library_corlib_native_System_Reflection_MethodBase24get_IsAbstract___BOOLEANER17CLR_RT_StackFrame
08060654 T _ZN50Library_corlib_native_System_Reflection_MethodBase30get_DeclaringType___SystemTypeER17CLR_RT_StackFrame
080605ac T _ZN50Library_corlib_native_System_Reflection_MethodBase39Invoke___OBJECT__OBJECT__SZARRAY_OBJECTER17CLR_RT_StackFrame
08060d5c T _ZN50Library_corlib_native_System_Threading_Interlocked32Decrement___STATIC__I4__BYREF_I4ER17CLR_RT_StackFrame
08060d28 T _ZN50Library_corlib_native_System_Threading_Interlocked32Increment___STATIC__I4__BYREF_I4ER17CLR_RT_StackFrame
08060d90 T _ZN50Library_corlib_native_System_Threading_Interlocked35Exchange___STATIC__I4__BYREF_I4__I4ER17CLR_RT_StackFrame
08060dc4 T _ZN50Library_corlib_native_System_Threading_Interlocked46CompareExchange___STATIC__I4__BYREF_I4__I4__I4ER17CLR_RT_StackFrame
08067aac T _ZN50Library_spot_native_Microsoft_SPOT_ResourceUtility83set_CurrentUICultureInternal___STATIC__VOID__mscorlibSystemGlobalizationCultureInfoER17CLR_RT_StackFrame
08067aa4 T _ZN50Library_spot_native_Microsoft_SPOT_ResourceUtility86GetObject___STATIC__OBJECT__mscorlibSystemResourcesResourceManager__mscorlibSystemEnumER17CLR_RT_StackFrame
08067aa8 T _ZN50Library_spot_native_Microsoft_SPOT_ResourceUtility94GetObject___STATIC__OBJECT__mscorlibSystemResourcesResourceManager__mscorlibSystemEnum__I4__I4ER17CLR_RT_StackFrame
0806cf7c T _ZN51Library_SamrakshEmote_Samraksh_eMote_RadarInterface15Blind___BOOLEANER17CLR_RT_StackFrame
0806cf14 T _ZN51Library_SamrakshEmote_Samraksh_eMote_RadarInterface16TurnOn___BOOLEANER17CLR_RT_StackFrame
0806cf48 T _ZN51Library_SamrakshEmote_Samraksh_eMote_RadarInterface17TurnOff___BOOLEANER17CLR_RT_StackFrame
080673f8 T _ZN51Library_spot_native_Microsoft_SPOT_Hardware_Utility28Piezo___STATIC__VOID__U4__U4ER17CLR_RT_StackFrame
08067408 T _ZN51Library_spot_native_Microsoft_SPOT_Hardware_Utility33Backlight___STATIC__VOID__BOOLEANER17CLR_RT_StackFrame
080672c0 T _ZN51Library_spot_native_Microsoft_SPOT_Hardware_Utility47ComputeCRC___STATIC__U4__SZARRAY_U1__I4__I4__U4ER17CLR_RT_StackFrame
080673e4 T _ZN51Library_spot_native_Microsoft_SPOT_Hardware_Utility47GetMachineTime___STATIC__mscorlibSystemTimeSpanER17CLR_RT_StackFrame
08067364 T _ZN51Library_spot_native_Microsoft_SPOT_Hardware_Utility51SetLocalTime___STATIC__VOID__mscorlibSystemDateTimeER17CLR_RT_StackFrame
08067cdc T _ZN51Library_spot_native_Microsoft_SPOT_Hardware_Utility54ExtractValueFromArray___STATIC__U4__SZARRAY_U1__I4__I4ER17CLR_RT_StackFrame
08067d38 T _ZN51Library_spot_native_Microsoft_SPOT_Hardware_Utility58CombineArrays___STATIC__SZARRAY_U1__SZARRAY_U1__SZARRAY_U1ER17CLR_RT_StackFrame
08067c88 T _ZN51Library_spot_native_Microsoft_SPOT_Hardware_Utility59InsertValueIntoArray___STATIC__VOID__SZARRAY_U1__I4__I4__U4ER17CLR_RT_StackFrame
08067314 T _ZN51Library_spot_native_Microsoft_SPOT_Hardware_Utility62ExtractRangeFromArray___STATIC__SZARRAY_U1__SZARRAY_U1__I4__I4ER17CLR_RT_StackFrame
08067dc4 T _ZN51Library_spot_native_Microsoft_SPOT_Hardware_Utility74CombineArrays___STATIC__SZARRAY_U1__SZARRAY_U1__I4__I4__SZARRAY_U1__I4__I4ER17CLR_RT_StackFrame
080615bc T _ZN52Library_corlib_native_System_Reflection_PropertyInfo41GetValue___OBJECT__OBJECT__SZARRAY_OBJECTER17CLR_RT_StackFrame
080615c0 T _ZN52Library_corlib_native_System_Reflection_PropertyInfo47SetValue___VOID__OBJECT__OBJECT__SZARRAY_OBJECTER17CLR_RT_StackFrame
08061624 T _ZN53Library_corlib_native_System_Threading_AutoResetEvent13Set___BOOLEANER17CLR_RT_StackFrame
0806160c T _ZN53Library_corlib_native_System_Threading_AutoResetEvent15Reset___BOOLEANER17CLR_RT_StackFrame
0805e9f8 T _ZN53Library_corlib_native_System_Threading_AutoResetEvent21_ctor___VOID__BOOLEANER17CLR_RT_StackFrame
0806ad74 T _ZN53Library_Samraksh_eMote_Net_Samraksh_eMote_Net_MACBase27PendingSendPacketCount___U1ER17CLR_RT_StackFrame
0806ad40 T _ZN53Library_Samraksh_eMote_Net_Samraksh_eMote_Net_MACBase30PendingReceivePacketCount___U1ER17CLR_RT_StackFrame
0806ad0c T _ZN53Library_Samraksh_eMote_Net_Samraksh_eMote_Net_MACBase43RemovePacket___SamraksheMoteNetDeviceStatusER17CLR_RT_StackFrame
0806ae44 T _ZN53Library_Samraksh_eMote_Net_Samraksh_eMote_Net_MACBase43UnInitialize___SamraksheMoteNetDeviceStatusER17CLR_RT_StackFrame
0806b1d8 T _ZN53Library_Samraksh_eMote_Net_Samraksh_eMote_Net_MACBase46EnqueueToSend___U2__U2__U1__SZARRAY_U1__U2__U2ER17CLR_RT_StackFrame
0806b288 T _ZN53Library_Samraksh_eMote_Net_Samraksh_eMote_Net_MACBase50EnqueueToSend___U2__U2__U1__SZARRAY_U1__U2__U2__U4ER17CLR_RT_StackFrame
0806af34 T _ZN53Library_Samraksh_eMote_Net_Samraksh_eMote_Net_MACBase56GetNextPacket___SamraksheMoteNetDeviceStatus__SZARRAY_U1ER17CLR_RT_StackFrame
0806ada8 T _ZN53Library_Samraksh_eMote_Net_Samraksh_eMote_Net_MACBase58Send___SamraksheMoteNetNetOpStatus__U2__SZARRAY_U1__U2__U2ER17CLR_RT_StackFrame
0806aee0 T _ZN53Library_Samraksh_eMote_Net_Samraksh_eMote_Net_MACBase62InternalReConfigure___SamraksheMoteNetDeviceStatus__SZARRAY_U1ER17CLR_RT_StackFrame
0806b34c T _ZN53Library_Samraksh_eMote_Net_Samraksh_eMote_Net_MACBase62Send___SamraksheMoteNetNetOpStatus__U2__SZARRAY_U1__U2__U2__U4ER17CLR_RT_StackFrame
0806b3fc T _ZN53Library_Samraksh_eMote_Net_Samraksh_eMote_Net_MACBase62Send___SamraksheMoteNetNetOpStatus__U2__U1__SZARRAY_U1__U2__U2ER17CLR_RT_StackFrame
0806b098 T _ZN53Library_Samraksh_eMote_Net_Samraksh_eMote_Net_MACBase64DeletePacketWithIndexInternal___SamraksheMoteNetDeviceStatus__U2ER17CLR_RT_StackFrame
0806ae78 T _ZN53Library_Samraksh_eMote_Net_Samraksh_eMote_Net_MACBase65InternalInitialize___SamraksheMoteNetDeviceStatus__SZARRAY_U1__U1ER17CLR_RT_StackFrame
0806af88 T _ZN53Library_Samraksh_eMote_Net_Samraksh_eMote_Net_MACBase66GetNeighborInternal___SamraksheMoteNetDeviceStatus__U2__SZARRAY_U1ER17CLR_RT_StackFrame
0806aff0 T _ZN53Library_Samraksh_eMote_Net_Samraksh_eMote_Net_MACBase66GetNeighborListInternal___SamraksheMoteNetDeviceStatus__SZARRAY_U2ER17CLR_RT_StackFrame
0806b4ac T _ZN53Library_Samraksh_eMote_Net_Samraksh_eMote_Net_MACBase66Send___SamraksheMoteNetNetOpStatus__U2__U1__SZARRAY_U1__U2__U2__U4ER17CLR_RT_StackFrame
0806b16c T _ZN53Library_Samraksh_eMote_Net_Samraksh_eMote_Net_MACBase67GetPacketSizeWithIndex___SamraksheMoteNetDeviceStatus__BYREF_U1__U2ER17CLR_RT_StackFrame
0806b044 T _ZN53Library_Samraksh_eMote_Net_Samraksh_eMote_Net_MACBase69GetMACNeighborListInternal___SamraksheMoteNetDeviceStatus__SZARRAY_U2ER17CLR_RT_StackFrame
0806b0e8 T _ZN53Library_Samraksh_eMote_Net_Samraksh_eMote_Net_MACBase69GetPacketWithIndex___SamraksheMoteNetDeviceStatus__SZARRAY_U1__U1__U2ER17CLR_RT_StackFrame
0806d5f4 T _ZN53Library_SamrakshEmoteDotNow_Samraksh_eMote_DotNow_NOR36InternalInitialize___STATIC__BOOLEANER17CLR_RT_StackFrame
0806d708 T _ZN53Library_SamrakshEmoteDotNow_Samraksh_eMote_DotNow_NOR74InternalRead___STATIC__SamraksheMoteDotNowDeviceStatus__SZARRAY_U2__U4__U2ER17CLR_RT_StackFrame
0806d620 T _ZN53Library_SamrakshEmoteDotNow_Samraksh_eMote_DotNow_NOR75InternalWrite___STATIC__SamraksheMoteDotNowDeviceStatus__SZARRAY_U2__U4__U2ER17CLR_RT_StackFrame
0806d688 T _ZN53Library_SamrakshEmoteDotNow_Samraksh_eMote_DotNow_NOR79InternalWrite___STATIC__SamraksheMoteDotNowDeviceStatus__SZARRAY_U2__U4__U2__U2ER17CLR_RT_StackFrame
08068c68 T _ZN53Library_spot_hardware_native_Microsoft_SPOT_EventSink18EventConfig___VOIDER17CLR_RT_StackFrame
0806a6d0 T _ZN53Library_spot_native_Microsoft_SPOT_Messaging_EndPoint36_ctor___VOID__mscorlibSystemType__U4ER17CLR_RT_StackFrame
0806a6d8 T _ZN53Library_spot_native_Microsoft_SPOT_Messaging_EndPoint43Check___BOOLEAN__mscorlibSystemType__U4__I4ER17CLR_RT_StackFrame
0806a6d4 T _ZN53Library_spot_native_Microsoft_SPOT_Messaging_EndPoint46GetMessage___MicrosoftSPOTMessagingMessage__I4ER17CLR_RT_StackFrame
0806a6e0 T _ZN53Library_spot_native_Microsoft_SPOT_Messaging_EndPoint58ReplyRaw___VOID__MicrosoftSPOTMessagingMessage__SZARRAY_U1ER17CLR_RT_StackFrame
0806a6dc T _ZN53Library_spot_native_Microsoft_SPOT_Messaging_EndPoint67SendMessageRaw___SZARRAY_U1__mscorlibSystemType__U4__I4__SZARRAY_U1ER17CLR_RT_StackFrame
0805e9b4 T _ZN54Library_corlib_native_System_Globalization_CultureInfo69get_CurrentUICultureInternal___STATIC__SystemGlobalizationCultureInfoER17CLR_RT_StackFrame
0805e9dc T _ZN54Library_corlib_native_System_Globalization_CultureInfo75set_CurrentUICultureInternal___STATIC__VOID__SystemGlobalizationCultureInfoER17CLR_RT_StackFrame
08060850 T _ZN54Library_corlib_native_System_Resources_ResourceManager30GetObjectInternal___OBJECT__I2ER17CLR_RT_StackFrame
08060770 T _ZN54Library_corlib_native_System_Resources_ResourceManager38GetObjectInternal___OBJECT__I2__I4__I4ER17CLR_RT_StackFrame
08060714 T _ZN54Library_corlib_native_System_Resources_ResourceManager59FindResource___STATIC__I4__STRING__SystemReflectionAssemblyER17CLR_RT_StackFrame
08060400 T _ZN54Library_corlib_native_System_Resources_ResourceManager70GetObject___STATIC__OBJECT__SystemResourcesResourceManager__SystemEnumER17CLR_RT_StackFrame
080652d0 T _ZN54Library_corlib_native_System_Resources_ResourceManager78GetObject___STATIC__OBJECT__SystemResourcesResourceManager__SystemEnum__I4__I4ER17CLR_RT_StackFrame
0806d998 T _ZN54Library_SamrakshEmoteDSP_Samraksh_eMote_DSP_Statistics20Sum___U8__SZARRAY_U1ER17CLR_RT_StackFrame
0806d9f0 T _ZN54Library_SamrakshEmoteDSP_Samraksh_eMote_DSP_Statistics20Sum___U8__SZARRAY_U2ER17CLR_RT_StackFrame
0806da48 T _ZN54Library_SamrakshEmoteDSP_Samraksh_eMote_DSP_Statistics20Sum___U8__SZARRAY_U4ER17CLR_RT_StackFrame
0806daa0 T _ZN54Library_SamrakshEmoteDSP_Samraksh_eMote_DSP_Statistics20Sum___U8__SZARRAY_U8ER17CLR_RT_StackFrame
0806dc4c T _ZN54Library_SamrakshEmoteDSP_Samraksh_eMote_DSP_Statistics21Mode___U1__SZARRAY_U1ER17CLR_RT_StackFrame
0806dca0 T _ZN54Library_SamrakshEmoteDSP_Samraksh_eMote_DSP_Statistics21Mode___U2__SZARRAY_U2ER17CLR_RT_StackFrame
0806dcf4 T _ZN54Library_SamrakshEmoteDSP_Samraksh_eMote_DSP_Statistics21Mode___U4__SZARRAY_U4ER17CLR_RT_StackFrame
0806dd48 T _ZN54Library_SamrakshEmoteDSP_Samraksh_eMote_DSP_Statistics21Mode___U8__SZARRAY_U8ER17CLR_RT_StackFrame
0806daf8 T _ZN54Library_SamrakshEmoteDSP_Samraksh_eMote_DSP_Statistics23Median___U1__SZARRAY_U1ER17CLR_RT_StackFrame
0806db4c T _ZN54Library_SamrakshEmoteDSP_Samraksh_eMote_DSP_Statistics23Median___U2__SZARRAY_U2ER17CLR_RT_StackFrame
0806dba0 T _ZN54Library_SamrakshEmoteDSP_Samraksh_eMote_DSP_Statistics23Median___U4__SZARRAY_U4ER17CLR_RT_StackFrame
0806dbf4 T _ZN54Library_SamrakshEmoteDSP_Samraksh_eMote_DSP_Statistics23Median___U8__SZARRAY_U8ER17CLR_RT_StackFrame
0806dda0 T _ZN54Library_SamrakshEmoteDSP_Samraksh_eMote_DSP_Statistics25Variance___R8__SZARRAY_U1ER17CLR_RT_StackFrame
0806ddf8 T _ZN54Library_SamrakshEmoteDSP_Samraksh_eMote_DSP_Statistics25Variance___R8__SZARRAY_U2ER17CLR_RT_StackFrame
0806de50 T _ZN54Library_SamrakshEmoteDSP_Samraksh_eMote_DSP_Statistics25Variance___R8__SZARRAY_U4ER17CLR_RT_StackFrame
0806dea8 T _ZN54Library_SamrakshEmoteDSP_Samraksh_eMote_DSP_Statistics25Variance___R8__SZARRAY_U8ER17CLR_RT_StackFrame
0806e098 T _ZN54Library_SamrakshEmoteDSP_Samraksh_eMote_DSP_Transforms41FFT___BOOLEAN__SZARRAY_I2__SZARRAY_I2__U2ER17CLR_RT_StackFrame
0806df00 T _ZN54Library_SamrakshEmoteDSP_Samraksh_eMote_DSP_Transforms41FFT___BOOLEAN__SZARRAY_U1__SZARRAY_U1__U2ER17CLR_RT_StackFrame
0806df88 T _ZN54Library_SamrakshEmoteDSP_Samraksh_eMote_DSP_Transforms41FFT___BOOLEAN__SZARRAY_U2__SZARRAY_U2__U2ER17CLR_RT_StackFrame
0806e010 T _ZN54Library_SamrakshEmoteDSP_Samraksh_eMote_DSP_Transforms41FFT___BOOLEAN__SZARRAY_U4__SZARRAY_U4__U2ER17CLR_RT_StackFrame
0806e120 T _ZN54Library_SamrakshEmoteDSP_Samraksh_eMote_DSP_Transforms42IFFT___BOOLEAN__SZARRAY_U1__SZARRAY_U1__U2ER17CLR_RT_StackFrame
0806e1a8 T _ZN54Library_SamrakshEmoteDSP_Samraksh_eMote_DSP_Transforms42IFFT___BOOLEAN__SZARRAY_U2__SZARRAY_U2__U2ER17CLR_RT_StackFrame
0806e230 T _ZN54Library_SamrakshEmoteDSP_Samraksh_eMote_DSP_Transforms42IFFT___BOOLEAN__SZARRAY_U4__SZARRAY_U4__U2ER17CLR_RT_StackFrame
08066f80 T _ZN54Library_spot_native_Microsoft_SPOT_ExecutionConstraint30Install___STATIC__VOID__I4__I4ER17CLR_RT_StackFrame
08067490 T _ZN54Library_spot_native_Microsoft_SPOT_Hardware_SystemInfo30get_OEMString___STATIC__STRINGER17CLR_RT_StackFrame
080674a8 T _ZN54Library_spot_native_Microsoft_SPOT_Hardware_SystemInfo33get_IsBigEndian___STATIC__BOOLEANER17CLR_RT_StackFrame
0806741c T _ZN54Library_spot_native_Microsoft_SPOT_Hardware_SystemInfo71GetSystemVersion___STATIC__VOID__BYREF_I4__BYREF_I4__BYREF_I4__BYREF_I4ER17CLR_RT_StackFrame
080603ac T _ZN55Library_corlib_native_System_Reflection_ConstructorInfo31Invoke___OBJECT__SZARRAY_OBJECTER17CLR_RT_StackFrame
080615f4 T _ZN55Library_corlib_native_System_Threading_ManualResetEvent13Set___BOOLEANER17CLR_RT_StackFrame
0805f14c T _ZN55Library_corlib_native_System_Threading_ManualResetEvent15Reset___BOOLEANER17CLR_RT_StackFrame
0805ea14 T _ZN55Library_corlib_native_System_Threading_ManualResetEvent21_ctor___VOID__BOOLEANER17CLR_RT_StackFrame
0806057c T _ZN56Library_corlib_native_System_Reflection_RuntimeFieldInfo17get_Name___STRINGER17CLR_RT_StackFrame
08063590 T _ZN56Library_corlib_native_System_Reflection_RuntimeFieldInfo25GetValue___OBJECT__OBJECTER17CLR_RT_StackFrame
08060464 T _ZN56Library_corlib_native_System_Reflection_RuntimeFieldInfo26get_FieldType___SystemTypeER17CLR_RT_StackFrame
08060524 T _ZN56Library_corlib_native_System_Reflection_RuntimeFieldInfo30get_DeclaringType___SystemTypeER17CLR_RT_StackFrame
08068fc4 T _ZN56Library_spot_hardware_native_Microsoft_SPOT_Hardware_Cpu26get_SlowClock___STATIC__U4ER17CLR_RT_StackFrame
08068f58 T _ZN56Library_spot_hardware_native_Microsoft_SPOT_Hardware_Cpu28get_SystemClock___STATIC__U4ER17CLR_RT_StackFrame
08068fdc T _ZN56Library_spot_hardware_native_Microsoft_SPOT_Hardware_Cpu53get_GlitchFilterTime___STATIC__mscorlibSystemTimeSpanER17CLR_RT_StackFrame
08069008 T _ZN56Library_spot_hardware_native_Microsoft_SPOT_Hardware_Cpu59set_GlitchFilterTime___STATIC__VOID__mscorlibSystemTimeSpanER17CLR_RT_StackFrame
08069fc8 T _ZN56Library_spot_hardware_native_Microsoft_SPOT_Hardware_SPI68InternalWriteRead___VOID__SZARRAY_U1__I4__I4__SZARRAY_U1__I4__I4__I4ER17CLR_RT_StackFrame
08069efc T _ZN56Library_spot_hardware_native_Microsoft_SPOT_Hardware_SPI68InternalWriteRead___VOID__SZARRAY_U2__I4__I4__SZARRAY_U2__I4__I4__I4ER17CLR_RT_StackFrame
08067220 T _ZN56Library_spot_native_Microsoft_SPOT_ExtendedWeakReference11get_Id___U4ER17CLR_RT_StackFrame
0806723c T _ZN56Library_spot_native_Microsoft_SPOT_ExtendedWeakReference14get_Flags___U4ER17CLR_RT_StackFrame
08066ecc T _ZN56Library_spot_native_Microsoft_SPOT_ExtendedWeakReference17get_Priority___I4ER17CLR_RT_StackFrame
0806729c T _ZN56Library_spot_native_Microsoft_SPOT_ExtendedWeakReference23FlushAll___STATIC__VOIDER17CLR_RT_StackFrame
08067280 T _ZN56Library_spot_native_Microsoft_SPOT_ExtendedWeakReference23set_Priority___VOID__I4ER17CLR_RT_StackFrame
08066e6c T _ZN56Library_spot_native_Microsoft_SPOT_ExtendedWeakReference30PushBackIntoRecoverList___VOIDER17CLR_RT_StackFrame
0806717c T _ZN56Library_spot_native_Microsoft_SPOT_ExtendedWeakReference33get_Selector___mscorlibSystemTypeER17CLR_RT_StackFrame
08067134 T _ZN56Library_spot_native_Microsoft_SPOT_ExtendedWeakReference48_ctor___VOID__OBJECT__mscorlibSystemType__U4__U4ER17CLR_RT_StackFrame
080670b8 T _ZN56Library_spot_native_Microsoft_SPOT_ExtendedWeakReference76Recover___STATIC__MicrosoftSPOTExtendedWeakReference__mscorlibSystemType__U4ER17CLR_RT_StackFrame
0805f820 T _ZN57Library_corlib_native_System_Globalization_DateTimeFormat37FormatDigits___STATIC__STRING__I4__I4ER17CLR_RT_StackFrame
080606b4 T _ZN57Library_corlib_native_System_Reflection_RuntimeMethodInfo27get_ReturnType___SystemTypeER17CLR_RT_StackFrame
0806a2e0 T _ZN57Library_spot_hardware_native_Microsoft_SPOT_Hardware_Port129_ctor___VOID__MicrosoftSPOTHardwareCpuPin__BOOLEAN__MicrosoftSPOTHardwarePortResistorMode__MicrosoftSPOTHardwarePortInterruptModeER17CLR_RT_StackFrame
08069790 T _ZN57Library_spot_hardware_native_Microsoft_SPOT_Hardware_Port12IsrProcedureEjjPv
08069818 T _ZN57Library_spot_hardware_native_Microsoft_SPOT_Hardware_Port14Read___BOOLEANER17CLR_RT_StackFrame
08069964 T _ZN57Library_spot_hardware_native_Microsoft_SPOT_Hardware_Port23Dispose___VOID__BOOLEANER17CLR_RT_StackFrame
08068fa8 T _ZN57Library_spot_hardware_native_Microsoft_SPOT_Hardware_Port36get_Id___MicrosoftSPOTHardwareCpuPinER17CLR_RT_StackFrame
0806a15c T _ZN57Library_spot_hardware_native_Microsoft_SPOT_Hardware_Port50_ctor___VOID__MicrosoftSPOTHardwareCpuPin__BOOLEANER17CLR_RT_StackFrame
080697f0 T _ZN57Library_spot_hardware_native_Microsoft_SPOT_Hardware_Port66ReservePin___STATIC__BOOLEAN__MicrosoftSPOTHardwareCpuPin__BOOLEANER17CLR_RT_StackFrame
0806a1fc T _ZN57Library_spot_hardware_native_Microsoft_SPOT_Hardware_Port98_ctor___VOID__MicrosoftSPOTHardwareCpuPin__BOOLEAN__BOOLEAN__MicrosoftSPOTHardwarePortResistorModeER17CLR_RT_StackFrame
08035714 T _ZN59Library_SamrakshEmoteRealtime_Samraksh_eMote_RealTime_Timer14Dispose___VOIDER17CLR_RT_StackFrame
08035740 T _ZN59Library_SamrakshEmoteRealtime_Samraksh_eMote_RealTime_Timer24Change___BOOLEAN__U4__U4ER17CLR_RT_StackFrame
0803579c T _ZN59Library_SamrakshEmoteRealtime_Samraksh_eMote_RealTime_Timer24GenerateInterrupt___VOIDER17CLR_RT_StackFrame
20003af8 V _ZN5RadioI23IEEE802_15_4_Message_t2E10MacIDIndexE
20003ae8 V _ZN5RadioI23IEEE802_15_4_Message_t2E11MacHandlersE
20003afc V _ZN5RadioI23IEEE802_15_4_Message_t2E6MacIDsE
0806d86c T _ZN60Library_SamrakshEmoteDotNow_Samraksh_eMote_DotNow_SDInternal60InternalInitialize___STATIC__SamraksheMoteDotNowDeviceStatusER17CLR_RT_StackFrame
0806d918 T _ZN60Library_SamrakshEmoteDotNow_Samraksh_eMote_DotNow_SDInternal78InternalRead___STATIC__SamraksheMoteDotNowDeviceStatus__SZARRAY_U1__U2__U2__U4ER17CLR_RT_StackFrame
0806d898 T _ZN60Library_SamrakshEmoteDotNow_Samraksh_eMote_DotNow_SDInternal79InternalWrite___STATIC__SamraksheMoteDotNowDeviceStatus__SZARRAY_U1__U2__U2__U4ER17CLR_RT_StackFrame
08068d5c T _ZN60Library_spot_hardware_native_Microsoft_SPOT_Hardware_Battery24ReadVoltage___STATIC__I4ER17CLR_RT_StackFrame
08068e10 T _ZN60Library_spot_hardware_native_Microsoft_SPOT_Hardware_Battery26StateOfCharge___STATIC__I4ER17CLR_RT_StackFrame
08068da4 T _ZN60Library_spot_hardware_native_Microsoft_SPOT_Hardware_Battery27OnCharger___STATIC__BOOLEANER17CLR_RT_StackFrame
08068d80 T _ZN60Library_spot_hardware_native_Microsoft_SPOT_Hardware_Battery28ReadTemperature___STATIC__I4ER17CLR_RT_StackFrame
08068dcc T _ZN60Library_spot_hardware_native_Microsoft_SPOT_Hardware_Battery32IsFullyCharged___STATIC__BOOLEANER17CLR_RT_StackFrame
08068e38 T _ZN60Library_spot_hardware_native_Microsoft_SPOT_Hardware_Battery34WaitForEvent___STATIC__BOOLEAN__I4ER17CLR_RT_StackFrame
0806d39c T _ZN61Library_SamrakshEmoteDotNow_Samraksh_eMote_DotNow_ADCInternal103ConfigureBatchModeDualChannel___STATIC__SamraksheMoteDotNowDeviceStatus__SZARRAY_U2__SZARRAY_U2__U4__U4ER17CLR_RT_StackFrame
0806d4ac T _ZN61Library_SamrakshEmoteDotNow_Samraksh_eMote_DotNow_ADCInternal104ConfigureBatchModeWithThresholding___STATIC__SamraksheMoteDotNowDeviceStatus__SZARRAY_U2__I4__U4__U4__U4ER17CLR_RT_StackFrame
0806d318 T _ZN61Library_SamrakshEmoteDotNow_Samraksh_eMote_DotNow_ADCInternal108ConfigureContinuousModeDualChannel___STATIC__SamraksheMoteDotNowDeviceStatus__SZARRAY_U2__SZARRAY_U2__U4__U4ER17CLR_RT_StackFrame
0806d420 T _ZN61Library_SamrakshEmoteDotNow_Samraksh_eMote_DotNow_ADCInternal109ConfigureContinuousModeWithThresholding___STATIC__SamraksheMoteDotNowDeviceStatus__SZARRAY_U2__I4__U4__U4__U4ER17CLR_RT_StackFrame
0806d188 T _ZN61Library_SamrakshEmoteDotNow_Samraksh_eMote_DotNow_ADCInternal21Init___STATIC__I4__I4ER17CLR_RT_StackFrame
0806d1ec T _ZN61Library_SamrakshEmoteDotNow_Samraksh_eMote_DotNow_ADCInternal21Read___STATIC__R8__I4ER17CLR_RT_StackFrame
0806d1c0 T _ZN61Library_SamrakshEmoteDotNow_Samraksh_eMote_DotNow_ADCInternal24Uninit___STATIC__BOOLEANER17CLR_RT_StackFrame
0806d578 T _ZN61Library_SamrakshEmoteDotNow_Samraksh_eMote_DotNow_ADCInternal25StopSampling___STATIC__I4ER17CLR_RT_StackFrame
0806d538 T _ZN61Library_SamrakshEmoteDotNow_Samraksh_eMote_DotNow_ADCInternal45DualChannelRead___STATIC__BOOLEAN__SZARRAY_U2ER17CLR_RT_StackFrame
0806d5a4 T _ZN61Library_SamrakshEmoteDotNow_Samraksh_eMote_DotNow_ADCInternal51SetPeriodicADCSamplingInterval___STATIC__I4__R8__R8ER17CLR_RT_StackFrame
0806d228 T _ZN61Library_SamrakshEmoteDotNow_Samraksh_eMote_DotNow_ADCInternal84ConfigureBatchMode___STATIC__SamraksheMoteDotNowDeviceStatus__SZARRAY_U2__I4__U4__U4ER17CLR_RT_StackFrame
0806d2a0 T _ZN61Library_SamrakshEmoteDotNow_Samraksh_eMote_DotNow_ADCInternal89ConfigureContinuousMode___STATIC__SamraksheMoteDotNowDeviceStatus__SZARRAY_U2__I4__U4__U4ER17CLR_RT_StackFrame
08069bb4 T _ZN61Library_spot_hardware_native_Microsoft_SPOT_Hardware_Watchdog143GetLastOcurrenceDetails___STATIC__BOOLEAN__BYREF_mscorlibSystemDateTime__BYREF_mscorlibSystemTimeSpan__BYREF_mscorlibSystemReflectionMethodInfoER17CLR_RT_StackFrame
08069894 T _ZN61Library_spot_hardware_native_Microsoft_SPOT_Hardware_Watchdog29get_Enabled___STATIC__BOOLEANER17CLR_RT_StackFrame
080698b0 T _ZN61Library_spot_hardware_native_Microsoft_SPOT_Hardware_Watchdog35set_Enabled___STATIC__VOID__BOOLEANER17CLR_RT_StackFrame
08069b4c T _ZN61Library_spot_hardware_native_Microsoft_SPOT_Hardware_Watchdog44get_Timeout___STATIC__mscorlibSystemTimeSpanER17CLR_RT_StackFrame
08069b28 T _ZN61Library_spot_hardware_native_Microsoft_SPOT_Hardware_Watchdog50set_Timeout___STATIC__VOID__mscorlibSystemTimeSpanER17CLR_RT_StackFrame
08069d30 T _ZN61Library_spot_hardware_native_Microsoft_SPOT_Hardware_Watchdog54get_Log___STATIC__MicrosoftSPOTNativeMicrosoftSPOTILogER17CLR_RT_StackFrame
08069b7c T _ZN61Library_spot_hardware_native_Microsoft_SPOT_Hardware_Watchdog60get_Behavior___STATIC__MicrosoftSPOTHardwareWatchdogBehaviorER17CLR_RT_StackFrame
08069bb0 T _ZN61Library_spot_hardware_native_Microsoft_SPOT_Hardware_Watchdog60set_Log___STATIC__VOID__MicrosoftSPOTNativeMicrosoftSPOTILogER17CLR_RT_StackFrame
08069b94 T _ZN61Library_spot_hardware_native_Microsoft_SPOT_Hardware_Watchdog66set_Behavior___STATIC__VOID__MicrosoftSPOTHardwareWatchdogBehaviorER17CLR_RT_StackFrame
080615c4 T _ZN62Library_corlib_native_System_Runtime_Remoting_RemotingServices44IsTransparentProxy___STATIC__BOOLEAN__OBJECTER17CLR_RT_StackFrame
0806bf54 T _ZN62Library_SamrakshEmote_Samraksh_eMote_Algorithm__RadarDetection20Initialize___BOOLEANER17CLR_RT_StackFrame
0806bf88 T _ZN62Library_SamrakshEmote_Samraksh_eMote_Algorithm__RadarDetection22Uninitialize___BOOLEANER17CLR_RT_StackFrame
0806c42c T _ZN62Library_SamrakshEmote_Samraksh_eMote_Algorithm__RadarDetection23GetCountOverTarget___I4ER17CLR_RT_StackFrame
0806c260 T _ZN62Library_SamrakshEmote_Samraksh_eMote_Algorithm__RadarDetection24GetIQRejectionLevel___I4ER17CLR_RT_StackFrame
0806c2e0 T _ZN62Library_SamrakshEmote_Samraksh_eMote_Algorithm__RadarDetection32GetWindowOverThreshold___BOOLEANER17CLR_RT_StackFrame
0806c314 T _ZN62Library_SamrakshEmote_Samraksh_eMote_Algorithm__RadarDetection34CurrentDetectionFinished___BOOLEANER17CLR_RT_StackFrame
0806c22c T _ZN62Library_SamrakshEmote_Samraksh_eMote_Algorithm__RadarDetection38ResetBackgroundNoiseTracking___BOOLEANER17CLR_RT_StackFrame
0806c294 T _ZN62Library_SamrakshEmote_Samraksh_eMote_Algorithm__RadarDetection50GetLastUnwrap___I4__SamraksheMoteRADARNOISEREQUESTER17CLR_RT_StackFrame
0806c348 T _ZN62Library_SamrakshEmote_Samraksh_eMote_Algorithm__RadarDetection57GetNetDisplacement___I4__SamraksheMoteSAMPLEWINDOWPORTIONER17CLR_RT_StackFrame
0806c068 T _ZN62Library_SamrakshEmote_Samraksh_eMote_Algorithm__RadarDetection58DetectionCalculation___BOOLEAN__SZARRAY_U2__SZARRAY_U2__I4ER17CLR_RT_StackFrame
0806c3e0 T _ZN62Library_SamrakshEmote_Samraksh_eMote_Algorithm__RadarDetection59GetDisplacementRange___I4__SamraksheMoteSAMPLEWINDOWPORTIONER17CLR_RT_StackFrame
0806c1e0 T _ZN62Library_SamrakshEmote_Samraksh_eMote_Algorithm__RadarDetection60GetBackgroundNoiseLevel___I4__SamraksheMoteRADARNOISEREQUESTER17CLR_RT_StackFrame
0806c394 T _ZN62Library_SamrakshEmote_Samraksh_eMote_Algorithm__RadarDetection62GetAbsoluteDisplacement___I4__SamraksheMoteSAMPLEWINDOWPORTIONER17CLR_RT_StackFrame
0806bfbc T _ZN62Library_SamrakshEmote_Samraksh_eMote_Algorithm__RadarDetection70DetectionCalculation___BOOLEAN__SZARRAY_U2__SZARRAY_U2__SZARRAY_U2__I4ER17CLR_RT_StackFrame
0806c0ec T _ZN62Library_SamrakshEmote_Samraksh_eMote_Algorithm__RadarDetection92SetDetectionParameters___BOOLEAN__SamraksheMoteRADARNOISECONTROL__R8__R8__U2__U2__U2__U2__U2ER17CLR_RT_StackFrame
0806951c T _ZN62Library_spot_hardware_native_Microsoft_SPOT_Hardware_I2CDevice17Initialize___VOIDER17CLR_RT_StackFrame
08069540 T _ZN62Library_spot_hardware_native_Microsoft_SPOT_Hardware_I2CDevice70Execute___I4__SZARRAY_MicrosoftSPOTHardwareI2CDeviceI2CTransaction__I4ER17CLR_RT_StackFrame
08069d4c T _ZN62Library_spot_hardware_native_Microsoft_SPOT_Hardware_InputPort26get_GlitchFilter___BOOLEANER17CLR_RT_StackFrame
0806a44c T _ZN62Library_spot_hardware_native_Microsoft_SPOT_Hardware_InputPort32set_GlitchFilter___VOID__BOOLEANER17CLR_RT_StackFrame
08069d34 T _ZN62Library_spot_hardware_native_Microsoft_SPOT_Hardware_InputPort52get_Resistor___MicrosoftSPOTHardwarePortResistorModeER17CLR_RT_StackFrame
0806a4e4 T _ZN62Library_spot_hardware_native_Microsoft_SPOT_Hardware_InputPort58set_Resistor___VOID__MicrosoftSPOTHardwarePortResistorModeER17CLR_RT_StackFrame
0806a9fc T _ZN62Library_spot_hardware_serial_native_System_IO_Ports_SerialPort12Flush___VOIDER17CLR_RT_StackFrame
0806a708 T _ZN62Library_spot_hardware_serial_native_System_IO_Ports_SerialPort19InternalOpen___VOIDER17CLR_RT_StackFrame
0806a770 T _ZN62Library_spot_hardware_serial_native_System_IO_Ports_SerialPort20InternalClose___VOIDER17CLR_RT_StackFrame
0806a6e4 T _ZN62Library_spot_hardware_serial_native_System_IO_Ports_SerialPort22InternalDispose___VOIDER17CLR_RT_StackFrame
0806aa44 T _ZN62Library_spot_hardware_serial_native_System_IO_Ports_SerialPort27BytesInBuffer___I4__BOOLEANER17CLR_RT_StackFrame
0806aa88 T _ZN62Library_spot_hardware_serial_native_System_IO_Ports_SerialPort29DiscardBuffer___VOID__BOOLEANER17CLR_RT_StackFrame
0806a7b8 T _ZN62Library_spot_hardware_serial_native_System_IO_Ports_SerialPort29Read___I4__SZARRAY_U1__I4__I4ER17CLR_RT_StackFrame
0806a8b4 T _ZN62Library_spot_hardware_serial_native_System_IO_Ports_SerialPort32Write___VOID__SZARRAY_U1__I4__I4ER17CLR_RT_StackFrame
08069758 T _ZN63Library_spot_hardware_native_Microsoft_SPOT_Hardware_OutputPort21Write___VOID__BOOLEANER17CLR_RT_StackFrame
08068f8c T _ZN63Library_spot_hardware_native_Microsoft_SPOT_Hardware_OutputPort26get_InitialState___BOOLEANER17CLR_RT_StackFrame
0806984c T _ZN63Library_spot_hardware_native_Microsoft_SPOT_Hardware_PowerState30Reboot___STATIC__VOID__BOOLEANER17CLR_RT_StackFrame
08068e7c T _ZN63Library_spot_hardware_native_Microsoft_SPOT_Hardware_PowerState40WaitForIdleCPU___STATIC__BOOLEAN__I4__I4ER17CLR_RT_StackFrame
08069880 T _ZN63Library_spot_hardware_native_Microsoft_SPOT_Hardware_PowerState43get_Uptime___STATIC__mscorlibSystemTimeSpanER17CLR_RT_StackFrame
08069864 T _ZN63Library_spot_hardware_native_Microsoft_SPOT_Hardware_PowerState56get_MaximumTimeToActive___STATIC__mscorlibSystemTimeSpanER17CLR_RT_StackFrame
080690f0 T _ZN63Library_spot_hardware_native_Microsoft_SPOT_Hardware_PowerState61get_WakeupEvents___STATIC__MicrosoftSPOTHardwareHardwareEventER17CLR_RT_StackFrame
08068c6c T _ZN63Library_spot_hardware_native_Microsoft_SPOT_Hardware_PowerState62set_MaximumTimeToActive___STATIC__VOID__mscorlibSystemTimeSpanER17CLR_RT_StackFrame
08068c88 T _ZN63Library_spot_hardware_native_Microsoft_SPOT_Hardware_PowerState67set_WakeupEvents___STATIC__VOID__MicrosoftSPOTHardwareHardwareEventER17CLR_RT_StackFrame
080698d8 T _ZN63Library_spot_hardware_native_Microsoft_SPOT_Hardware_PowerState72InternalChangePowerLevel___STATIC__VOID__MicrosoftSPOTHardwarePowerLevelER17CLR_RT_StackFrame
08069d64 T _ZN63Library_spot_hardware_native_Microsoft_SPOT_Hardware_PowerState97InternalSleep___STATIC__VOID__MicrosoftSPOTHardwareSleepLevel__MicrosoftSPOTHardwareHardwareEventER17CLR_RT_StackFrame
0806bf00 T _ZN64Library_SamrakshEmote_Samraksh_eMote_Algorithm__DecisionFunction23Decide___R4__SZARRAY_I4ER17CLR_RT_StackFrame
0806be9c T _ZN64Library_SamrakshEmote_Samraksh_eMote_Algorithm__DecisionFunction53NormalizeFeatureVector___VOID__SZARRAY_R4__SZARRAY_I4ER17CLR_RT_StackFrame
0806bdb0 T _ZN64Library_SamrakshEmote_Samraksh_eMote_Algorithm__DecisionFunction69Initialize___VOID__U2__U2__R4__R4__SZARRAY_R4__SZARRAY_R4__SZARRAY_R4ER17CLR_RT_StackFrame
0806c97c T _ZN64Library_SamrakshEmote_Samraksh_eMote_NonVolatileMemory_DataStore14DeleteAll___I4ER17CLR_RT_StackFrame
0806c898 T _ZN64Library_SamrakshEmote_Samraksh_eMote_NonVolatileMemory_DataStore17GetFreeBytes___I4ER17CLR_RT_StackFrame
0806c864 T _ZN64Library_SamrakshEmote_Samraksh_eMote_NonVolatileMemory_DataStore17GetUsedBytes___I4ER17CLR_RT_StackFrame
0806c830 T _ZN64Library_SamrakshEmote_Samraksh_eMote_NonVolatileMemory_DataStore18GetTotalSpace___I4ER17CLR_RT_StackFrame
0806c9b0 T _ZN64Library_SamrakshEmote_Samraksh_eMote_NonVolatileMemory_DataStore19EraseAllBlocks___I4ER17CLR_RT_StackFrame
0806c9e4 T _ZN64Library_SamrakshEmote_Samraksh_eMote_NonVolatileMemory_DataStore21DataStoreGC___BOOLEANER17CLR_RT_StackFrame
0806c948 T _ZN64Library_SamrakshEmote_Samraksh_eMote_NonVolatileMemory_DataStore22GetCountOfDataIds___I4ER17CLR_RT_StackFrame
0806c7fc T _ZN64Library_SamrakshEmote_Samraksh_eMote_NonVolatileMemory_DataStore25GetMaxAllocationSize___I4ER17CLR_RT_StackFrame
0806ca4c T _ZN64Library_SamrakshEmote_Samraksh_eMote_NonVolatileMemory_DataStore27GetLastDatastoreStatus___I4ER17CLR_RT_StackFrame
0806ca18 T _ZN64Library_SamrakshEmote_Samraksh_eMote_NonVolatileMemory_DataStore28GetReadWriteStatus___BOOLEANER17CLR_RT_StackFrame
0806c7ac T _ZN64Library_SamrakshEmote_Samraksh_eMote_NonVolatileMemory_DataStore29CreateDataStore___I4__BOOLEANER17CLR_RT_StackFrame
0806c8cc T _ZN64Library_SamrakshEmote_Samraksh_eMote_NonVolatileMemory_DataStore42GetReadAllDataIds___I4__SZARRAY_I4__I4__I4ER17CLR_RT_StackFrame
0806ccb4 T _ZN64Library_SamrakshEmote_Samraksh_eMote_NonVolatileMemory_DataStore44ReadRaw___I4__U4__SZARRAY_U1__U4__U4__U1__I4ER17CLR_RT_StackFrame
0806cd70 T _ZN64Library_SamrakshEmote_Samraksh_eMote_NonVolatileMemory_DataStore44ReadRaw___I4__U4__SZARRAY_U1__U4__U4__U2__I4ER17CLR_RT_StackFrame
0806ce2c T _ZN64Library_SamrakshEmote_Samraksh_eMote_NonVolatileMemory_DataStore44ReadRaw___I4__U4__SZARRAY_U1__U4__U4__U4__I4ER17CLR_RT_StackFrame
0806ca80 T _ZN64Library_SamrakshEmote_Samraksh_eMote_NonVolatileMemory_DataStore45WriteRaw___I4__U4__SZARRAY_U1__U4__U4__U1__I4ER17CLR_RT_StackFrame
0806cb3c T _ZN64Library_SamrakshEmote_Samraksh_eMote_NonVolatileMemory_DataStore45WriteRaw___I4__U4__SZARRAY_U1__U4__U4__U2__I4ER17CLR_RT_StackFrame
0806cbf8 T _ZN64Library_SamrakshEmote_Samraksh_eMote_NonVolatileMemory_DataStore45WriteRaw___I4__U4__SZARRAY_U1__U4__U4__U4__I4ER17CLR_RT_StackFrame
08068ca4 T _ZN64Library_spot_hardware_native_Microsoft_SPOT_Hardware_AnalogInput12ReadRaw___I4ER17CLR_RT_StackFrame
08068d0c T _ZN64Library_spot_hardware_native_Microsoft_SPOT_Hardware_AnalogInput66Uninitialize___STATIC__VOID__MicrosoftSPOTHardwareCpuAnalogChannelER17CLR_RT_StackFrame
08068cf0 T _ZN64Library_spot_hardware_native_Microsoft_SPOT_Hardware_AnalogInput68Initialize___STATIC__VOID__MicrosoftSPOTHardwareCpuAnalogChannel__I4ER17CLR_RT_StackFrame
08069c7c T _ZN64Library_spot_hardware_native_Microsoft_SPOT_Hardware_LargeBuffer28InternalDestroyBuffer___VOIDER17CLR_RT_StackFrame
08069e74 T _ZN64Library_spot_hardware_native_Microsoft_SPOT_Hardware_LargeBuffer31InternalCreateBuffer___VOID__I4ER17CLR_RT_StackFrame
080671d8 T _ZN64Library_spot_native_Microsoft_SPOT_Hardware_SystemInfo__SystemID20get_OEM___STATIC__U1ER17CLR_RT_StackFrame
08067208 T _ZN64Library_spot_native_Microsoft_SPOT_Hardware_SystemInfo__SystemID20get_SKU___STATIC__U2ER17CLR_RT_StackFrame
080671f0 T _ZN64Library_spot_native_Microsoft_SPOT_Hardware_SystemInfo__SystemID22get_Model___STATIC__U1ER17CLR_RT_StackFrame
0806bd54 T _ZN65Library_SamrakshEmote_Samraksh_eMote_Algorithm__AcousticDetection40SetDetectionParameters___BOOLEAN__I4__I4ER17CLR_RT_StackFrame
0806bcac T _ZN65Library_SamrakshEmote_Samraksh_eMote_Algorithm__AcousticDetection67DetectionCalculation___BOOLEAN__SZARRAY_U2__I4__SZARRAY_R8__BOOLEANER17CLR_RT_StackFrame
08068d1c T _ZN65Library_spot_hardware_native_Microsoft_SPOT_Hardware_AnalogOutput19WriteRaw___VOID__I4ER17CLR_RT_StackFrame
08068d4c T _ZN65Library_spot_hardware_native_Microsoft_SPOT_Hardware_AnalogOutput72Uninitialize___STATIC__VOID__MicrosoftSPOTHardwareCpuAnalogOutputChannelER17CLR_RT_StackFrame
08068d30 T _ZN65Library_spot_hardware_native_Microsoft_SPOT_Hardware_AnalogOutput74Initialize___STATIC__VOID__MicrosoftSPOTHardwareCpuAnalogOutputChannel__I4ER17CLR_RT_StackFrame
08068df4 T _ZN65Library_spot_hardware_native_Microsoft_SPOT_Hardware_TristatePort20get_Active___BOOLEANER17CLR_RT_StackFrame
08068cd8 T _ZN65Library_spot_hardware_native_Microsoft_SPOT_Hardware_TristatePort26get_GlitchFilter___BOOLEANER17CLR_RT_StackFrame
0806a60c T _ZN65Library_spot_hardware_native_Microsoft_SPOT_Hardware_TristatePort26set_Active___VOID__BOOLEANER17CLR_RT_StackFrame
08068cc0 T _ZN65Library_spot_hardware_native_Microsoft_SPOT_Hardware_TristatePort52get_Resistor___MicrosoftSPOTHardwarePortResistorModeER17CLR_RT_StackFrame
0806a3c0 T _ZN65Library_spot_hardware_native_Microsoft_SPOT_Hardware_TristatePort58set_Resistor___VOID__MicrosoftSPOTHardwarePortResistorModeER17CLR_RT_StackFrame
08067e60 T _ZN65Library_spot_update_native_Microsoft_SPOT_MFUpdate_MFNativeUpdate21_cctor___STATIC__VOIDER17CLR_RT_StackFrame
08067f4c T _ZN65Library_spot_update_native_Microsoft_SPOT_MFUpdate_MFNativeUpdate26Open___STATIC__BOOLEAN__I4ER17CLR_RT_StackFrame
08067f64 T _ZN65Library_spot_update_native_Microsoft_SPOT_MFUpdate_MFNativeUpdate28Create___STATIC__BOOLEAN__I4ER17CLR_RT_StackFrame
080680dc T _ZN65Library_spot_update_native_Microsoft_SPOT_MFUpdate_MFNativeUpdate31DeleteUpdate___STATIC__VOID__I4ER17CLR_RT_StackFrame
080680ac T _ZN65Library_spot_update_native_Microsoft_SPOT_MFUpdate_MFNativeUpdate41Install___STATIC__BOOLEAN__I4__SZARRAY_U1ER17CLR_RT_StackFrame
0806807c T _ZN65Library_spot_update_native_Microsoft_SPOT_MFUpdate_MFNativeUpdate42Validate___STATIC__BOOLEAN__I4__SZARRAY_U1ER17CLR_RT_StackFrame
08067f1c T _ZN65Library_spot_update_native_Microsoft_SPOT_MFUpdate_MFNativeUpdate46Authenticate___STATIC__BOOLEAN__I4__SZARRAY_U1ER17CLR_RT_StackFrame
08068b00 T _ZN65Library_spot_update_native_Microsoft_SPOT_MFUpdate_MFNativeUpdate47SerializeParameter___STATIC__SZARRAY_U1__OBJECTER17CLR_RT_StackFrame
08067f7c T _ZN65Library_spot_update_native_Microsoft_SPOT_MFUpdate_MFNativeUpdate48GetMissingPackets___STATIC__VOID__I4__SZARRAY_U4ER17CLR_RT_StackFrame
080683f4 T _ZN65Library_spot_update_native_Microsoft_SPOT_MFUpdate_MFNativeUpdate58DeserializeParameter___STATIC__BOOLEAN__SZARRAY_U1__OBJECTER17CLR_RT_StackFrame
08067e6c T _ZN65Library_spot_update_native_Microsoft_SPOT_MFUpdate_MFNativeUpdate58Initialize___STATIC__I4__MicrosoftSPOTMFUpdateMFUpdateBaseER17CLR_RT_StackFrame
08068030 T _ZN65Library_spot_update_native_Microsoft_SPOT_MFUpdate_MFNativeUpdate59AddPacket___STATIC__BOOLEAN__I4__I4__SZARRAY_U1__SZARRAY_U1ER17CLR_RT_StackFrame
08067ff4 T _ZN65Library_spot_update_native_Microsoft_SPOT_MFUpdate_MFNativeUpdate59SetUpdateProperty___STATIC__BOOLEAN__I4__STRING__SZARRAY_U1ER17CLR_RT_StackFrame
08067fac T _ZN65Library_spot_update_native_Microsoft_SPOT_MFUpdate_MFNativeUpdate65GetUpdateProperty___STATIC__BOOLEAN__I4__STRING__BYREF_SZARRAY_U1ER17CLR_RT_StackFrame
08067ecc T _ZN65Library_spot_update_native_Microsoft_SPOT_MFUpdate_MFNativeUpdate67AuthCommand___STATIC__BOOLEAN__I4__I4__SZARRAY_U1__BYREF_SZARRAY_U1ER17CLR_RT_StackFrame
080698e8 T _ZN66Library_spot_hardware_native_Microsoft_SPOT_Hardware_InterruptPort21ClearInterrupt___VOIDER17CLR_RT_StackFrame
08069dfc T _ZN66Library_spot_hardware_native_Microsoft_SPOT_Hardware_InterruptPort22EnableInterrupt___VOIDER17CLR_RT_StackFrame
08069cc4 T _ZN66Library_spot_hardware_native_Microsoft_SPOT_Hardware_InterruptPort23DisableInterrupt___VOIDER17CLR_RT_StackFrame
08068f70 T _ZN66Library_spot_hardware_native_Microsoft_SPOT_Hardware_InterruptPort54get_Interrupt___MicrosoftSPOTHardwarePortInterruptModeER17CLR_RT_StackFrame
0806a570 T _ZN66Library_spot_hardware_native_Microsoft_SPOT_Hardware_InterruptPort60set_Interrupt___VOID__MicrosoftSPOTHardwarePortInterruptModeER17CLR_RT_StackFrame
0805e9f0 T _ZN68Library_corlib_native_System_Runtime_CompilerServices_RuntimeHelpers35get_OffsetToStringData___STATIC__I4ER17CLR_RT_StackFrame
0805fef4 T _ZN68Library_corlib_native_System_Runtime_CompilerServices_RuntimeHelpers39GetObjectValue___STATIC__OBJECT__OBJECTER17CLR_RT_StackFrame
080615b4 T _ZN68Library_corlib_native_System_Runtime_CompilerServices_RuntimeHelpers59RunClassConstructor___STATIC__VOID__SystemRuntimeTypeHandleER17CLR_RT_StackFrame
080604b8 T _ZN68Library_corlib_native_System_Runtime_CompilerServices_RuntimeHelpers69InitializeArray___STATIC__VOID__SystemArray__SystemRuntimeFieldHandleER17CLR_RT_StackFrame
0806c6f8 T _ZN68Library_SamrakshEmote_Samraksh_eMote_NonVolatileMemory_DataReference14GetDataID___U4ER17CLR_RT_StackFrame
0806c5dc T _ZN68Library_SamrakshEmote_Samraksh_eMote_NonVolatileMemory_DataReference23CreateData___I4__U4__U1ER17CLR_RT_StackFrame
0806c63c T _ZN68Library_SamrakshEmote_Samraksh_eMote_NonVolatileMemory_DataReference23CreateData___I4__U4__U2ER17CLR_RT_StackFrame
0806c69c T _ZN68Library_SamrakshEmote_Samraksh_eMote_NonVolatileMemory_DataReference23CreateData___I4__U4__U4ER17CLR_RT_StackFrame
0806c544 T _ZN68Library_SamrakshEmote_Samraksh_eMote_NonVolatileMemory_DataReference23LookupDataSize___I4__U4ER17CLR_RT_StackFrame
0806c4f8 T _ZN68Library_SamrakshEmote_Samraksh_eMote_NonVolatileMemory_DataReference23LookupDataType___I4__U4ER17CLR_RT_StackFrame
0806c590 T _ZN68Library_SamrakshEmote_Samraksh_eMote_NonVolatileMemory_DataReference24DeleteData___BOOLEAN__U4ER17CLR_RT_StackFrame
0806c4ac T _ZN68Library_SamrakshEmote_Samraksh_eMote_NonVolatileMemory_DataReference24GetDataLocation___I4__U4ER17CLR_RT_StackFrame
0806c460 T _ZN68Library_SamrakshEmote_Samraksh_eMote_NonVolatileMemory_DataReference25GetDataReference___I4__U4ER17CLR_RT_StackFrame
0806c72c T _ZN68Library_SamrakshEmote_Samraksh_eMote_NonVolatileMemory_DataReference27GetLastDatastoreStatus___I4ER17CLR_RT_StackFrame
0806c760 T _ZN68Library_SamrakshEmote_Samraksh_eMote_NonVolatileMemory_DataReference40DisposeNativeMemoryPointer___BOOLEAN__U4ER17CLR_RT_StackFrame
08069304 T _ZN69Library_spot_hardware_native_Microsoft_SPOT_Hardware_HardwareProvider107NativeGetSupportedResistorModes___MicrosoftSPOTHardwareCpuPinValidResistorMode__MicrosoftSPOTHardwareCpuPinER17CLR_RT_StackFrame
080694a0 T _ZN69Library_spot_hardware_native_Microsoft_SPOT_Hardware_HardwareProvider109NativeGetAnalogOutputPinForChannel___MicrosoftSPOTHardwareCpuPin__MicrosoftSPOTHardwareCpuAnalogOutputChannelER17CLR_RT_StackFrame
0806931c T _ZN69Library_spot_hardware_native_Microsoft_SPOT_Hardware_HardwareProvider109NativeGetSupportedInterruptModes___MicrosoftSPOTHardwareCpuPinValidInterruptMode__MicrosoftSPOTHardwareCpuPinER17CLR_RT_StackFrame
080694c4 T _ZN69Library_spot_hardware_native_Microsoft_SPOT_Hardware_HardwareProvider113NativeGetAvailableAnalogOutputPrecisionInBitsForChannel___SZARRAY_I4__MicrosoftSPOTHardwareCpuAnalogOutputChannelER17CLR_RT_StackFrame
080691f0 T _ZN69Library_spot_hardware_native_Microsoft_SPOT_Hardware_HardwareProvider163NativeGetSpiPins___VOID__MicrosoftSPOTHardwareSPISPImodule__BYREF_MicrosoftSPOTHardwareCpuPin__BYREF_MicrosoftSPOTHardwareCpuPin__BYREF_MicrosoftSPOTHardwareCpuPinER17CLR_RT_StackFrame
08069044 T _ZN69Library_spot_hardware_native_Microsoft_SPOT_Hardware_HardwareProvider170NativeGetSerialPins___VOID__I4__BYREF_MicrosoftSPOTHardwareCpuPin__BYREF_MicrosoftSPOTHardwareCpuPin__BYREF_MicrosoftSPOTHardwareCpuPin__BYREF_MicrosoftSPOTHardwareCpuPinER17CLR_RT_StackFrame
080692bc T _ZN69Library_spot_hardware_native_Microsoft_SPOT_Hardware_HardwareProvider23NativeGetPinsCount___I4ER17CLR_RT_StackFrame
080691dc T _ZN69Library_spot_hardware_native_Microsoft_SPOT_Hardware_HardwareProvider27NativeGetSpiPortsCount___I4ER17CLR_RT_StackFrame
080693cc T _ZN69Library_spot_hardware_native_Microsoft_SPOT_Hardware_HardwareProvider30NativeGetPWMChannelsCount___I4ER17CLR_RT_StackFrame
080690dc T _ZN69Library_spot_hardware_native_Microsoft_SPOT_Hardware_HardwareProvider30NativeGetSerialPortsCount___I4ER17CLR_RT_StackFrame
080693fc T _ZN69Library_spot_hardware_native_Microsoft_SPOT_Hardware_HardwareProvider33NativeGetAnalogChannelsCount___I4ER17CLR_RT_StackFrame
0806948c T _ZN69Library_spot_hardware_native_Microsoft_SPOT_Hardware_HardwareProvider39NativeGetAnalogOutputChannelsCount___I4ER17CLR_RT_StackFrame
08069108 T _ZN69Library_spot_hardware_native_Microsoft_SPOT_Hardware_HardwareProvider47NativeSupportsNonStandardBaudRate___BOOLEAN__I4ER17CLR_RT_StackFrame
08069188 T _ZN69Library_spot_hardware_native_Microsoft_SPOT_Hardware_HardwareProvider49NativeIsSupportedBaudRate___BOOLEAN__I4__BYREF_U4ER17CLR_RT_StackFrame
08069128 T _ZN69Library_spot_hardware_native_Microsoft_SPOT_Hardware_HardwareProvider56NativeGetBaudRateBoundary___VOID__I4__BYREF_U4__BYREF_U4ER17CLR_RT_StackFrame
080692d0 T _ZN69Library_spot_hardware_native_Microsoft_SPOT_Hardware_HardwareProvider65NativeGetPinsMap___VOID__SZARRAY_MicrosoftSPOTHardwareCpuPinUsageER17CLR_RT_StackFrame
0806934c T _ZN69Library_spot_hardware_native_Microsoft_SPOT_Hardware_HardwareProvider66NativeGetLCDMetrics___VOID__BYREF_I4__BYREF_I4__BYREF_I4__BYREF_I4ER17CLR_RT_StackFrame
08069334 T _ZN69Library_spot_hardware_native_Microsoft_SPOT_Hardware_HardwareProvider78NativeGetButtonPins___MicrosoftSPOTHardwareCpuPin__MicrosoftSPOTHardwareButtonER17CLR_RT_StackFrame
080692ec T _ZN69Library_spot_hardware_native_Microsoft_SPOT_Hardware_HardwareProvider81NativeGetPinUsage___MicrosoftSPOTHardwareCpuPinUsage__MicrosoftSPOTHardwareCpuPinER17CLR_RT_StackFrame
080693e0 T _ZN69Library_spot_hardware_native_Microsoft_SPOT_Hardware_HardwareProvider91NativeGetPWMPinForChannel___MicrosoftSPOTHardwareCpuPin__MicrosoftSPOTHardwareCpuPWMChannelER17CLR_RT_StackFrame
0806926c T _ZN69Library_spot_hardware_native_Microsoft_SPOT_Hardware_HardwareProvider93NativeGetI2CPins___VOID__BYREF_MicrosoftSPOTHardwareCpuPin__BYREF_MicrosoftSPOTHardwareCpuPinER17CLR_RT_StackFrame
08069434 T _ZN69Library_spot_hardware_native_Microsoft_SPOT_Hardware_HardwareProvider95NativeGetAvailablePrecisionInBitsForChannel___SZARRAY_I4__MicrosoftSPOTHardwareCpuAnalogChannelER17CLR_RT_StackFrame
08069410 T _ZN69Library_spot_hardware_native_Microsoft_SPOT_Hardware_HardwareProvider97NativeGetAnalogPinForChannel___MicrosoftSPOTHardwareCpuPin__MicrosoftSPOTHardwareCpuAnalogChannelER17CLR_RT_StackFrame
08066e00 T _ZN6System4Math13IEEERemainderEdd
08066df8 T _ZN6System4Math3CosEd
08066e04 T _ZN6System4Math3ExpEd
08066e10 T _ZN6System4Math3LogEd
08066e18 T _ZN6System4Math3PowEdd
08066e1c T _ZN6System4Math3SinEd
08066e28 T _ZN6System4Math3TanEd
08066de4 T _ZN6System4Math4AcosEd
08066de8 T _ZN6System4Math4AsinEd
08066dec T _ZN6System4Math4AtanEd
08066dfc T _ZN6System4Math4CoshEd
08066e0c T _ZN6System4Math4FmodEdd
08066e20 T _ZN6System4Math4SinhEd
08066e24 T _ZN6System4Math4SqrtEd
08066e2c T _ZN6System4Math4TanhEd
08066df0 T _ZN6System4Math5Atan2Edd
08066e08 T _ZN6System4Math5FloorEd
08066e14 T _ZN6System4Math5Log10Ed
08066df4 T _ZN6System4Math7CeilingEd
08066e30 T _ZN6System4Math8TruncateEdRd
08066d50 T _ZN6System6Double10IsInfinityEd
08066d80 T _ZN6System6Double18IsNegativeInfinityEd
08066db0 T _ZN6System6Double18IsPositiveInfinityEd
08066d70 T _ZN6System6Double5IsNaNEd
08066c98 T _ZN6System6Double9CompareToEdd
0806b9d0 T _ZN71Library_Samraksh_eMote_Net_Samraksh_eMote_Net_Radio_Radio_802_15_4_Base24GetRadioAddress___U2__U1ER17CLR_RT_StackFrame
0806ba20 T _ZN71Library_Samraksh_eMote_Net_Samraksh_eMote_Net_Radio_Radio_802_15_4_Base33SetRadioAddress___BOOLEAN__U1__U2ER17CLR_RT_StackFrame
0806b624 T _ZN71Library_Samraksh_eMote_Net_Samraksh_eMote_Net_Radio_Radio_802_15_4_Base35ClearChannelAssesment___BOOLEAN__U1ER17CLR_RT_StackFrame
0806b674 T _ZN71Library_Samraksh_eMote_Net_Samraksh_eMote_Net_Radio_Radio_802_15_4_Base39ClearChannelAssesment___BOOLEAN__U1__U2ER17CLR_RT_StackFrame
0806b570 T _ZN71Library_Samraksh_eMote_Net_Samraksh_eMote_Net_Radio_Radio_802_15_4_Base43TurnOnRx___SamraksheMoteNetDeviceStatus__U1ER17CLR_RT_StackFrame
0806b5c0 T _ZN71Library_Samraksh_eMote_Net_Samraksh_eMote_Net_Radio_Radio_802_15_4_Base44Sleep___SamraksheMoteNetDeviceStatus__U1__U1ER17CLR_RT_StackFrame
0806bad4 T _ZN71Library_Samraksh_eMote_Net_Samraksh_eMote_Net_Radio_Radio_802_15_4_Base44TurnOffRx___SamraksheMoteNetDeviceStatus__U1ER17CLR_RT_StackFrame
0806b8c0 T _ZN71Library_Samraksh_eMote_Net_Samraksh_eMote_Net_Radio_Radio_802_15_4_Base47SetRadioName___SamraksheMoteNetDeviceStatus__U1ER17CLR_RT_StackFrame
0806ba84 T _ZN71Library_Samraksh_eMote_Net_Samraksh_eMote_Net_Radio_Radio_802_15_4_Base47UnInitialize___SamraksheMoteNetDeviceStatus__U1ER17CLR_RT_StackFrame
0806b740 T _ZN71Library_Samraksh_eMote_Net_Samraksh_eMote_Net_Radio_Radio_802_15_4_Base48SendStrobe___SamraksheMoteNetNetOpStatus__U1__U2ER17CLR_RT_StackFrame
0806b970 T _ZN71Library_Samraksh_eMote_Net_Samraksh_eMote_Net_Radio_Radio_802_15_4_Base49SetChannel___SamraksheMoteNetDeviceStatus__U1__I4ER17CLR_RT_StackFrame
0806b910 T _ZN71Library_Samraksh_eMote_Net_Samraksh_eMote_Net_Radio_Radio_802_15_4_Base49SetTxPower___SamraksheMoteNetDeviceStatus__U1__I4ER17CLR_RT_StackFrame
0806b6d8 T _ZN71Library_Samraksh_eMote_Net_Samraksh_eMote_Net_Radio_Radio_802_15_4_Base53PreLoad___SamraksheMoteNetNetOpStatus__SZARRAY_U1__U2ER17CLR_RT_StackFrame
0806b7a4 T _ZN71Library_Samraksh_eMote_Net_Samraksh_eMote_Net_Radio_Radio_802_15_4_Base54Send___SamraksheMoteNetNetOpStatus__U1__SZARRAY_U1__U2ER17CLR_RT_StackFrame
0806b828 T _ZN71Library_Samraksh_eMote_Net_Samraksh_eMote_Net_Radio_Radio_802_15_4_Base69SendTimeStamped___SamraksheMoteNetNetOpStatus__U1__SZARRAY_U1__U2__U4ER17CLR_RT_StackFrame
08068ef4 T _ZN74Library_spot_hardware_native_Microsoft_SPOT_Hardware_Battery__ChargerModel12_ctor___VOIDER17CLR_RT_StackFrame
08069ca0 T _ZN74Library_spot_hardware_native_Microsoft_SPOT_Hardware_LargeBufferMarshaller54MarshalBuffer___VOID__MicrosoftSPOTHardwareLargeBufferER17CLR_RT_StackFrame
0806a094 T _ZN74Library_spot_hardware_native_Microsoft_SPOT_Hardware_LargeBufferMarshaller62UnMarshalBuffer___VOID__BYREF_MicrosoftSPOTHardwareLargeBufferER17CLR_RT_StackFrame
080699c8 T _ZN74Library_spot_hardware_native_Microsoft_SPOT_Hardware_NativeEventDispatcher22EnableInterrupt___VOIDER17CLR_RT_StackFrame
08069a0c T _ZN74Library_spot_hardware_native_Microsoft_SPOT_Hardware_NativeEventDispatcher23DisableInterrupt___VOIDER17CLR_RT_StackFrame
08069a4c T _ZN74Library_spot_hardware_native_Microsoft_SPOT_Hardware_NativeEventDispatcher23Dispose___VOID__BOOLEANER17CLR_RT_StackFrame
08069a84 T _ZN74Library_spot_hardware_native_Microsoft_SPOT_Hardware_NativeEventDispatcher24_ctor___VOID__STRING__U8ER17CLR_RT_StackFrame
08027588 T _ZN7csmaMAC10InitializeEP15MACEventHandlerhhhP9MACConfig
08026a28 t _ZN7csmaMAC11SendToRadioEv.part.21
080279bc T _ZN7csmaMAC12UnInitializeEv
08027a04 T _ZN7csmaMAC15SendTimeStampedEthPvij
08027b94 T _ZN7csmaMAC4SendEthPvi
0802756c T _ZN7csmaMAC9SetConfigEP9MACConfig
08067adc T _ZN81Library_spot_native_System_Security_Cryptography_X509Certificates_X509Certificate139ParseCertificate___STATIC__VOID__SZARRAY_U1__STRING__BYREF_STRING__BYREF_STRING__BYREF_mscorlibSystemDateTime__BYREF_mscorlibSystemDateTimeER17CLR_RT_StackFrame
0806bbe8 T _ZN82Library_Samraksh_eMote_ProgramManager_Samraksh_eMote_ProgramManager_ProgramManager22UpdaterStart___BOOLEANER17CLR_RT_StackFrame
0806bc1c T _ZN82Library_Samraksh_eMote_ProgramManager_Samraksh_eMote_ProgramManager_ProgramManager26UpdaterStart___BOOLEAN__U4ER17CLR_RT_StackFrame
0806bc68 T _ZN82Library_Samraksh_eMote_ProgramManager_Samraksh_eMote_ProgramManager_ProgramManager32UpdaterSetDestination___VOID__U2ER17CLR_RT_StackFrame
08028b68 T _ZN8MFUpdate9GetUpdateEj
0807519c T _ZN8myVector5eraseEi
08075144 T _ZN8myVector6insertEiRK4PACK
080751f4 T _ZN8myVectorixEi
0802b128 T _ZN8OMACType10InitializeEP15MACEventHandlerhhhP9MACConfig
0802b51c T _ZN8OMACType12UnInitializeEv
0802b920 T _ZN8OMACType13EnqueueToSendEthPvi
0802d6f8 T _ZN8OMACType15SendTimeStampedEthPvij
0802b554 T _ZN8OMACType18GetPacketWithIndexEPPhht
0802e528 T _ZN8OMACType19UpdateNeighborTableEv
0802b784 T _ZN8OMACType20PrepareMessageBufferEthPvi
20003008 B _ZN8OMACType21payloadTypeArrayIndexE
0802b598 T _ZN8OMACType22GetPacketSizeWithIndexEPht
0802de1c T _ZN8OMACType24EnqueueToSendTimeStampedEthPvij
0802ac2c T _ZN8OMACType25SendRXPacketToUpperLayersEP23IEEE802_15_4_Message_t2h
20002ff4 B _ZN8OMACType26OMAC_callback_continuationE
0802b5b4 T _ZN8OMACType29DeletePacketWithIndexInternalEt
0802aa78 T _ZN8OMACType33SetOMACParametersBasedOnRadioNameEh
0802c7fc T _ZN8OMACType4SendEthPvi
0802aa5c T _ZN8OMACType9SetConfigEP9MACConfig
0806eadc T _ZN8Samraksh5eMote14ProgramManager14ProgramManager12UpdaterStartEP16CLR_RT_HeapBlockjRi
0806ea6c T _ZN8Samraksh5eMote14ProgramManager14ProgramManager12UpdaterStartEP16CLR_RT_HeapBlockRi
0806eb58 T _ZN8Samraksh5eMote14ProgramManager14ProgramManager21UpdaterSetDestinationEP16CLR_RT_HeapBlocktRi
0806fa4c T _ZN8Samraksh5eMote14RadarInterface5BlindEP16CLR_RT_HeapBlockRi
0806fa44 T _ZN8Samraksh5eMote14RadarInterface6TurnOnEP16CLR_RT_HeapBlockRi
0806fa48 T _ZN8Samraksh5eMote14RadarInterface7TurnOffEP16CLR_RT_HeapBlockRi
0806f5cc T _ZN8Samraksh5eMote17NonVolatileMemory13DataReference10CreateDataEP16CLR_RT_HeapBlockjhRi
0806f644 T _ZN8Samraksh5eMote17NonVolatileMemory13DataReference10CreateDataEP16CLR_RT_HeapBlockjjRi
0806f608 T _ZN8Samraksh5eMote17NonVolatileMemory13DataReference10CreateDataEP16CLR_RT_HeapBlockjtRi
0806f5ac T _ZN8Samraksh5eMote17NonVolatileMemory13DataReference10DeleteDataEP16CLR_RT_HeapBlockjRi
0806f5a0 T _ZN8Samraksh5eMote17NonVolatileMemory13DataReference14LookupDataSizeEP16CLR_RT_HeapBlockjRi
0806f594 T _ZN8Samraksh5eMote17NonVolatileMemory13DataReference14LookupDataTypeEP16CLR_RT_HeapBlockjRi
0806f588 T _ZN8Samraksh5eMote17NonVolatileMemory13DataReference15GetDataLocationEP16CLR_RT_HeapBlockjRi
0806f57c T _ZN8Samraksh5eMote17NonVolatileMemory13DataReference16GetDataReferenceEP16CLR_RT_HeapBlockjRi
0806f6a0 T _ZN8Samraksh5eMote17NonVolatileMemory13DataReference22GetLastDatastoreStatusEP16CLR_RT_HeapBlockRi
0806f6e4 T _ZN8Samraksh5eMote17NonVolatileMemory13DataReference26DisposeNativeMemoryPointerEP16CLR_RT_HeapBlockjRi
0806f680 T _ZN8Samraksh5eMote17NonVolatileMemory13DataReference9GetDataIDEP16CLR_RT_HeapBlockRi
0806f82c T _ZN8Samraksh5eMote17NonVolatileMemory9DataStore11DataStoreGCEP16CLR_RT_HeapBlockRi
0806f758 T _ZN8Samraksh5eMote17NonVolatileMemory9DataStore12GetFreeBytesEP16CLR_RT_HeapBlockRi
0806f74c T _ZN8Samraksh5eMote17NonVolatileMemory9DataStore12GetUsedBytesEP16CLR_RT_HeapBlockRi
0806f740 T _ZN8Samraksh5eMote17NonVolatileMemory9DataStore13GetTotalSpaceEP16CLR_RT_HeapBlockRi
0806f7f4 T _ZN8Samraksh5eMote17NonVolatileMemory9DataStore14EraseAllBlocksEP16CLR_RT_HeapBlockRi
0806f6f8 T _ZN8Samraksh5eMote17NonVolatileMemory9DataStore15CreateDataStoreEP16CLR_RT_HeapBlockaRi
0806f7b0 T _ZN8Samraksh5eMote17NonVolatileMemory9DataStore17GetCountOfDataIdsEP16CLR_RT_HeapBlockRi
0806f764 T _ZN8Samraksh5eMote17NonVolatileMemory9DataStore17GetReadAllDataIdsEP16CLR_RT_HeapBlock17CLR_RT_TypedArrayIiEiiRi
0806f864 T _ZN8Samraksh5eMote17NonVolatileMemory9DataStore18GetReadWriteStatusEP16CLR_RT_HeapBlockRi
0806f734 T _ZN8Samraksh5eMote17NonVolatileMemory9DataStore20GetMaxAllocationSizeEP16CLR_RT_HeapBlockRi
0806f868 T _ZN8Samraksh5eMote17NonVolatileMemory9DataStore22GetLastDatastoreStatusEP16CLR_RT_HeapBlockRi
0806f95c T _ZN8Samraksh5eMote17NonVolatileMemory9DataStore7ReadRawEP16CLR_RT_HeapBlockj17CLR_RT_TypedArrayIhEjjhiRi
0806f9f4 T _ZN8Samraksh5eMote17NonVolatileMemory9DataStore7ReadRawEP16CLR_RT_HeapBlockj17CLR_RT_TypedArrayIhEjjjiRi
0806f9a8 T _ZN8Samraksh5eMote17NonVolatileMemory9DataStore7ReadRawEP16CLR_RT_HeapBlockj17CLR_RT_TypedArrayIhEjjtiRi
0806f878 T _ZN8Samraksh5eMote17NonVolatileMemory9DataStore8WriteRawEP16CLR_RT_HeapBlockj17CLR_RT_TypedArrayIhEjjhiRi
0806f910 T _ZN8Samraksh5eMote17NonVolatileMemory9DataStore8WriteRawEP16CLR_RT_HeapBlockj17CLR_RT_TypedArrayIhEjjjiRi
0806f8c4 T _ZN8Samraksh5eMote17NonVolatileMemory9DataStore8WriteRawEP16CLR_RT_HeapBlockj17CLR_RT_TypedArrayIhEjjtiRi
0806f7bc T _ZN8Samraksh5eMote17NonVolatileMemory9DataStore9DeleteAllEP16CLR_RT_HeapBlockRi
0806f190 T _ZN8Samraksh5eMote24Algorithm_RadarDetection10InitializeEP16CLR_RT_HeapBlockRi
0806f25c T _ZN8Samraksh5eMote24Algorithm_RadarDetection12UninitializeEP16CLR_RT_HeapBlockRi
0806f514 T _ZN8Samraksh5eMote24Algorithm_RadarDetection13GetLastUnwrapEP16CLR_RT_HeapBlockiRi
0806f574 T _ZN8Samraksh5eMote24Algorithm_RadarDetection18GetCountOverTargetEP16CLR_RT_HeapBlockRi
0806f55c T _ZN8Samraksh5eMote24Algorithm_RadarDetection18GetNetDisplacementEP16CLR_RT_HeapBlockiRi
0806f508 T _ZN8Samraksh5eMote24Algorithm_RadarDetection19GetIQRejectionLevelEP16CLR_RT_HeapBlockRi
0806f284 T _ZN8Samraksh5eMote24Algorithm_RadarDetection20DetectionCalculationEP16CLR_RT_HeapBlock17CLR_RT_TypedArrayItES5_iRi
0806f260 T _ZN8Samraksh5eMote24Algorithm_RadarDetection20DetectionCalculationEP16CLR_RT_HeapBlock17CLR_RT_TypedArrayItES5_S5_iRi
0806f56c T _ZN8Samraksh5eMote24Algorithm_RadarDetection20GetDisplacementRangeEP16CLR_RT_HeapBlockiRi
0806f53c T _ZN8Samraksh5eMote24Algorithm_RadarDetection22GetWindowOverThresholdEP16CLR_RT_HeapBlockRi
0806f2bc T _ZN8Samraksh5eMote24Algorithm_RadarDetection22SetDetectionParametersEP16CLR_RT_HeapBlockiddtttttRi
0806f564 T _ZN8Samraksh5eMote24Algorithm_RadarDetection23GetAbsoluteDisplacementEP16CLR_RT_HeapBlockiRi
0806f46c T _ZN8Samraksh5eMote24Algorithm_RadarDetection23GetBackgroundNoiseLevelEP16CLR_RT_HeapBlockiRi
0806f54c T _ZN8Samraksh5eMote24Algorithm_RadarDetection24CurrentDetectionFinishedEP16CLR_RT_HeapBlockRi
0806f4b0 T _ZN8Samraksh5eMote24Algorithm_RadarDetection28ResetBackgroundNoiseTrackingEP16CLR_RT_HeapBlockRi
0806eb78 T _ZN8Samraksh5eMote26Algorithm_DecisionFunction10InitializeEP16CLR_RT_HeapBlockttff17CLR_RT_TypedArrayIfES5_S5_Ri
0806eb98 T _ZN8Samraksh5eMote26Algorithm_DecisionFunction22NormalizeFeatureVectorEP16CLR_RT_HeapBlock17CLR_RT_TypedArrayIfES4_IiERi
0806ebb0 T _ZN8Samraksh5eMote26Algorithm_DecisionFunction6DecideEP16CLR_RT_HeapBlock17CLR_RT_TypedArrayIiERi
0806eb64 T _ZN8Samraksh5eMote27Algorithm_AcousticDetection20DetectionCalculationEP16CLR_RT_HeapBlock17CLR_RT_TypedArrayItEiS4_IdEaRi
0806eb74 T _ZN8Samraksh5eMote27Algorithm_AcousticDetection22SetDetectionParametersEP16CLR_RT_HeapBlockiiRi
0806fadc T _ZN8Samraksh5eMote3DSP10Statistics3SumEP16CLR_RT_HeapBlock17CLR_RT_TypedArrayIhERi
0806fafc T _ZN8Samraksh5eMote3DSP10Statistics3SumEP16CLR_RT_HeapBlock17CLR_RT_TypedArrayIjERi
0806faec T _ZN8Samraksh5eMote3DSP10Statistics3SumEP16CLR_RT_HeapBlock17CLR_RT_TypedArrayItERi
0806fb0c T _ZN8Samraksh5eMote3DSP10Statistics3SumEP16CLR_RT_HeapBlock17CLR_RT_TypedArrayIyERi
0806fb5c T _ZN8Samraksh5eMote3DSP10Statistics4ModeEP16CLR_RT_HeapBlock17CLR_RT_TypedArrayIhERi
0806fb7c T _ZN8Samraksh5eMote3DSP10Statistics4ModeEP16CLR_RT_HeapBlock17CLR_RT_TypedArrayIjERi
0806fb6c T _ZN8Samraksh5eMote3DSP10Statistics4ModeEP16CLR_RT_HeapBlock17CLR_RT_TypedArrayItERi
0806fb8c T _ZN8Samraksh5eMote3DSP10Statistics4ModeEP16CLR_RT_HeapBlock17CLR_RT_TypedArrayIyERi
0806fb1c T _ZN8Samraksh5eMote3DSP10Statistics6MedianEP16CLR_RT_HeapBlock17CLR_RT_TypedArrayIhERi
0806fb3c T _ZN8Samraksh5eMote3DSP10Statistics6MedianEP16CLR_RT_HeapBlock17CLR_RT_TypedArrayIjERi
0806fb2c T _ZN8Samraksh5eMote3DSP10Statistics6MedianEP16CLR_RT_HeapBlock17CLR_RT_TypedArrayItERi
0806fb4c T _ZN8Samraksh5eMote3DSP10Statistics6MedianEP16CLR_RT_HeapBlock17CLR_RT_TypedArrayIyERi
0806fb9c T _ZN8Samraksh5eMote3DSP10Statistics8VarianceEP16CLR_RT_HeapBlock17CLR_RT_TypedArrayIhERi
0806fbbc T _ZN8Samraksh5eMote3DSP10Statistics8VarianceEP16CLR_RT_HeapBlock17CLR_RT_TypedArrayIjERi
0806fbac T _ZN8Samraksh5eMote3DSP10Statistics8VarianceEP16CLR_RT_HeapBlock17CLR_RT_TypedArrayItERi
0806fbcc T _ZN8Samraksh5eMote3DSP10Statistics8VarianceEP16CLR_RT_HeapBlock17CLR_RT_TypedArrayIyERi
0806fbdc T _ZN8Samraksh5eMote3DSP10Transforms3FFTEP16CLR_RT_HeapBlock17CLR_RT_TypedArrayIhES6_tRi
0806fc04 T _ZN8Samraksh5eMote3DSP10Transforms3FFTEP16CLR_RT_HeapBlock17CLR_RT_TypedArrayIjES6_tRi
0806fc18 T _ZN8Samraksh5eMote3DSP10Transforms3FFTEP16CLR_RT_HeapBlock17CLR_RT_TypedArrayIsES6_tRi
0806fbf0 T _ZN8Samraksh5eMote3DSP10Transforms3FFTEP16CLR_RT_HeapBlock17CLR_RT_TypedArrayItES6_tRi
0806fc54 T _ZN8Samraksh5eMote3DSP10Transforms4IFFTEP16CLR_RT_HeapBlock17CLR_RT_TypedArrayIhES6_tRi
0806fc7c T _ZN8Samraksh5eMote3DSP10Transforms4IFFTEP16CLR_RT_HeapBlock17CLR_RT_TypedArrayIjES6_tRi
0806fc68 T _ZN8Samraksh5eMote3DSP10Transforms4IFFTEP16CLR_RT_HeapBlock17CLR_RT_TypedArrayItES6_tRi
0806e9ec T _ZN8Samraksh5eMote3Net5Radio19Radio_802_15_4_Base10SendStrobeEP16CLR_RT_HeapBlockhtRi
0806e99c T _ZN8Samraksh5eMote3Net5Radio19Radio_802_15_4_Base10SetChannelEP16CLR_RT_HeapBlockhiRi
0806e988 T _ZN8Samraksh5eMote3Net5Radio19Radio_802_15_4_Base10SetTxPowerEP16CLR_RT_HeapBlockhiRi
0806e978 T _ZN8Samraksh5eMote3Net5Radio19Radio_802_15_4_Base12SetRadioNameEP16CLR_RT_HeapBlockhRi
0806e950 T _ZN8Samraksh5eMote3Net5Radio19Radio_802_15_4_Base12UnInitializeEP16CLR_RT_HeapBlockhRi
0806e960 T _ZN8Samraksh5eMote3Net5Radio19Radio_802_15_4_Base15GetRadioAddressEP16CLR_RT_HeapBlockhRi
0806ea24 T _ZN8Samraksh5eMote3Net5Radio19Radio_802_15_4_Base15SendTimeStampedEP16CLR_RT_HeapBlockh17CLR_RT_TypedArrayIhEtjRi
0806e968 T _ZN8Samraksh5eMote3Net5Radio19Radio_802_15_4_Base15SetRadioAddressEP16CLR_RT_HeapBlockhtRi
0806ea4c T _ZN8Samraksh5eMote3Net5Radio19Radio_802_15_4_Base21ClearChannelAssesmentEP16CLR_RT_HeapBlockhRi
0806ea5c T _ZN8Samraksh5eMote3Net5Radio19Radio_802_15_4_Base21ClearChannelAssesmentEP16CLR_RT_HeapBlockhtRi
0806ea00 T _ZN8Samraksh5eMote3Net5Radio19Radio_802_15_4_Base4SendEP16CLR_RT_HeapBlockh17CLR_RT_TypedArrayIhEtRi
0806e9c8 T _ZN8Samraksh5eMote3Net5Radio19Radio_802_15_4_Base5SleepEP16CLR_RT_HeapBlockhhRi
0806e9d4 T _ZN8Samraksh5eMote3Net5Radio19Radio_802_15_4_Base7PreLoadEP16CLR_RT_HeapBlock17CLR_RT_TypedArrayIhEtRi
0806e9b0 T _ZN8Samraksh5eMote3Net5Radio19Radio_802_15_4_Base8TurnOnRxEP16CLR_RT_HeapBlockhRi
0806e9bc T _ZN8Samraksh5eMote3Net5Radio19Radio_802_15_4_Base9TurnOffRxEP16CLR_RT_HeapBlockhRi
0806e638 T _ZN8Samraksh5eMote3Net7MACBase12RemovePacketEP16CLR_RT_HeapBlockRi
0806e6d4 T _ZN8Samraksh5eMote3Net7MACBase12UnInitializeEP16CLR_RT_HeapBlockRi
0806e864 T _ZN8Samraksh5eMote3Net7MACBase13EnqueueToSendEP16CLR_RT_HeapBlockth17CLR_RT_TypedArrayIhEttjRi
0806e850 T _ZN8Samraksh5eMote3Net7MACBase13EnqueueToSendEP16CLR_RT_HeapBlockth17CLR_RT_TypedArrayIhEttRi
200077d4 B _ZN8Samraksh5eMote3Net7MACBase13Event_HandlerE
0806e7bc T _ZN8Samraksh5eMote3Net7MACBase13GetNextPacketEP16CLR_RT_HeapBlock17CLR_RT_TypedArrayIhERi
0806e828 T _ZN8Samraksh5eMote3Net7MACBase18GetPacketWithIndexEP16CLR_RT_HeapBlock17CLR_RT_TypedArrayIhEhtRi
0806e6dc T _ZN8Samraksh5eMote3Net7MACBase18InternalInitializeEP16CLR_RT_HeapBlock17CLR_RT_TypedArrayIhEhRi
0806e7d4 T _ZN8Samraksh5eMote3Net7MACBase19GetNeighborInternalEP16CLR_RT_HeapBlockt17CLR_RT_TypedArrayIhERi
0806e778 T _ZN8Samraksh5eMote3Net7MACBase19InternalReConfigureEP16CLR_RT_HeapBlock17CLR_RT_TypedArrayIhERi
0806e844 T _ZN8Samraksh5eMote3Net7MACBase22GetPacketSizeWithIndexEP16CLR_RT_HeapBlockPhtRi
0806e684 T _ZN8Samraksh5eMote3Net7MACBase22PendingSendPacketCountEP16CLR_RT_HeapBlockRi
0806e7ec T _ZN8Samraksh5eMote3Net7MACBase23GetNeighborListInternalEP16CLR_RT_HeapBlock17CLR_RT_TypedArrayItERi
0806e674 T _ZN8Samraksh5eMote3Net7MACBase25PendingReceivePacketCountEP16CLR_RT_HeapBlockRi
0806e810 T _ZN8Samraksh5eMote3Net7MACBase26GetMACNeighborListInternalEP16CLR_RT_HeapBlock17CLR_RT_TypedArrayItERi
0806e804 T _ZN8Samraksh5eMote3Net7MACBase29DeletePacketWithIndexInternalEP16CLR_RT_HeapBlocktRi
0806e8c4 T _ZN8Samraksh5eMote3Net7MACBase4SendEP16CLR_RT_HeapBlockt17CLR_RT_TypedArrayIhEttjRi
0806e694 T _ZN8Samraksh5eMote3Net7MACBase4SendEP16CLR_RT_HeapBlockt17CLR_RT_TypedArrayIhEttRi
0806e908 T _ZN8Samraksh5eMote3Net7MACBase4SendEP16CLR_RT_HeapBlockth17CLR_RT_TypedArrayIhEttjRi
0806e884 T _ZN8Samraksh5eMote3Net7MACBase4SendEP16CLR_RT_HeapBlockth17CLR_RT_TypedArrayIhEttRi
20007750 B _ZN8Samraksh5eMote3Net7MACBase7MyAppIDE
0806d84c T _ZN8Samraksh5eMote6DotNow10SDInternal12InternalReadE17CLR_RT_TypedArrayIhEttjRi
0806d808 T _ZN8Samraksh5eMote6DotNow10SDInternal13InternalWriteE17CLR_RT_TypedArrayIhEttjRi
0806d7f0 T _ZN8Samraksh5eMote6DotNow10SDInternal18InternalInitializeERi
0806d178 T _ZN8Samraksh5eMote6DotNow11ADCInternal12StopSamplingERi
0806d15c T _ZN8Samraksh5eMote6DotNow11ADCInternal15DualChannelReadE17CLR_RT_TypedArrayItERi
0806d08c T _ZN8Samraksh5eMote6DotNow11ADCInternal18ConfigureBatchModeE17CLR_RT_TypedArrayItEijjRi
0806d0b4 T _ZN8Samraksh5eMote6DotNow11ADCInternal23ConfigureContinuousModeE17CLR_RT_TypedArrayItEijjRi
0806d10c T _ZN8Samraksh5eMote6DotNow11ADCInternal29ConfigureBatchModeDualChannelE17CLR_RT_TypedArrayItES4_jjRi
0806d184 T _ZN8Samraksh5eMote6DotNow11ADCInternal30SetPeriodicADCSamplingIntervalEddRi
0806d14c T _ZN8Samraksh5eMote6DotNow11ADCInternal34ConfigureBatchModeWithThresholdingE17CLR_RT_TypedArrayItEijjjRi
0806d0dc T _ZN8Samraksh5eMote6DotNow11ADCInternal34ConfigureContinuousModeDualChannelE17CLR_RT_TypedArrayItES4_jjRi
0806d13c T _ZN8Samraksh5eMote6DotNow11ADCInternal39ConfigureContinuousModeWithThresholdingE17CLR_RT_TypedArrayItEijjjRi
0806d04c T _ZN8Samraksh5eMote6DotNow11ADCInternal4InitEiRi
0806d07c T _ZN8Samraksh5eMote6DotNow11ADCInternal4ReadEiRi
0806d064 T _ZN8Samraksh5eMote6DotNow11ADCInternal6UninitERi
0806fabc T _ZN8Samraksh5eMote6DotNow3NOR12InternalReadE17CLR_RT_TypedArrayItEjtRi
0806fa64 T _ZN8Samraksh5eMote6DotNow3NOR13InternalWriteE17CLR_RT_TypedArrayItEjtRi
0806faac T _ZN8Samraksh5eMote6DotNow3NOR13InternalWriteE17CLR_RT_TypedArrayItEjttRi
0806fa50 T _ZN8Samraksh5eMote6DotNow3NOR18InternalInitializeERi
0806fa40 T _ZN8Samraksh5eMote8Platform23GetPlatformTypeInternalERi
08048894 T _ZN8Samraksh5eMote8RealTime5Timer17GenerateInterruptEP16CLR_RT_HeapBlockRi
08048884 T _ZN8Samraksh5eMote8RealTime5Timer6ChangeEP16CLR_RT_HeapBlockjjRi
08048880 T _ZN8Samraksh5eMote8RealTime5Timer7DisposeEP16CLR_RT_HeapBlockRi
08024b54 T _ZN9CLR_Debug4EmitEPKci
08024a1c t _ZN9CLR_Debug4EmitEPKci.part.4
08024b44 T _ZN9CLR_Debug5FlushEv
08024bb0 T _ZN9CLR_Debug6PrintfEPKcz
08024b68 T _ZN9CLR_Debug7PrintfVEPKcSt9__va_list
080265e0 T _ZNK15BlockDeviceInfo17FindForBlockUsageEjRjS0_S0_
08026554 T _ZNK15BlockDeviceInfo21FindRegionFromAddressEjRjS0_
0804b390 t _ZNK16CLR_RT_HeapBlock12IsAValueTypeEv.part.32
0804e558 T _ZNK16CLR_RT_HeapBlock24TransparentProxyValidateEv
0804dc08 T _ZNK16CLR_RT_HeapBlock6IsZeroEv
08051a54 T _ZNK19CLR_RECORD_ASSEMBLY10GoodHeaderEv
08051ab0 T _ZNK19CLR_RECORD_ASSEMBLY12GoodAssemblyEv
0804bcfc T _ZNK22CLR_RT_ExecutionEngine30UpdateToLowestExecutionCounterEP13CLR_RT_Thread
08050e0c T _ZNK23CLR_RT_TypeDef_Instance12HasFinalizerEv
200053a8 b _ZZ11TimeHandlerPvE16timeHandlerCount
20007900 b _ZZ14calculatePhasePtS_S_issittttE11countRepeat
200015a6 d _ZZ14calculatePhasePtS_S_issittttE12countPrimary
200015a2 d _ZZ14calculatePhasePtS_S_issittttE12markerRepeat
200015a4 d _ZZ14calculatePhasePtS_S_issittttE13markerPrimary
200078cc b _ZZ14calculatePhasePtS_S_issittttE14checksumRepeat
200078a0 b _ZZ14calculatePhasePtS_S_issittttE15checksumPrimary
0807ef84 t _ZZ14CPU_Radio_SendhPvtE8__func__
0807ee0c t _ZZ15CPU_Radio_SleephhE8__func__
08080cbc V _ZZ16CLR_TkFromStreamRPKhE8c_lookup
200057a0 b _ZZ17I2C_Event_HandlerE15i2cEventTimeout
20002fe0 b _ZZ17USART1_IRQHandlerE3buf
20002fd8 b _ZZ17USART1_IRQHandlerE3idx
0807ef58 t _ZZ18CPU_Radio_TurnOnRxhE8__func__
0807edf8 t _ZZ19CPU_Radio_TurnOffRxhE8__func__
0807ef28 t _ZZ20CPU_Radio_GetAddresshE8__func__
0807eeb8 t _ZZ20CPU_Radio_InitializeP17RadioEventHandlerhhhE8__func__
0807ee4c t _ZZ20CPU_Radio_SendStrobehtE8__func__
0807ef6c t _ZZ20CPU_Radio_SetAddresshtE8__func__
0807eed0 t _ZZ22CPU_Radio_SetRadioNameaE8__func__
0807ef40 t _ZZ22CPU_Radio_UnInitializehE8__func__
08080cc8 V _ZZ23CLR_UncompressTypeTokenjE8c_lookup
0807ee34 t _ZZ23CPU_Radio_ChangeChannelhiE8__func__
0807ee1c t _ZZ23CPU_Radio_ChangeTxPowerhiE8__func__
08080cc4 V _ZZ24CLR_UncompressFieldTokenjE8c_lookup
08080cc0 V _ZZ25CLR_UncompressMethodTokenjE8c_lookup
0807ee64 t _ZZ26CPU_Radio_Send_TimeStampedhPvtjE8__func__
0807eee8 t _ZZ31CPU_Radio_ClearChannelAssesmenthE8__func__
0807ef08 t _ZZ31CPU_Radio_ClearChannelAssesmenthjE8__func__
20007904 b _ZZN10Data_Store11searchForIDEjE12recordOffset
2000790c b _ZZN10Data_Store11searchForIDEjE17prevBlockSearched
200015a8 d _ZZN10Data_Store16createAllocationEjPvjjE14blockIdCounter
20003ba0 b _ZZN10RF231Radio15HandleInterruptEvE9irq_cause
20001af0 b _ZZN11CLR_RT_DUMP15GETERRORMESSAGEEiE5s_tmp
200061b8 b _ZZN15CLR_HW_Hardware15ProcessActivityEvE10lastStatus
20005918 b _ZZN15Watchdog_Driver16WatchdogCallbackEPvE15iReentrantState
20001510 d _ZZN15Watchdog_Driver16WatchdogCallbackEPvE8lastTime
20001a28 b _ZZN16CLR_DBG_Debugger12Monitor_PingEP10WP_MessagePvE16previousPingTime
200053a4 b _ZZN16DiscoveryHandler4SendEtP23IEEE802_15_4_Message_t2tyE9seqNumber
2000539c b _ZZN20DataReceptionHandler11SendDataACKEvE17softwareAckHeader
20005398 b _ZZN20DataReceptionHandler11SendDataACKEvE1i
0807f034 t _ZZN21Samraksh_Emote_Update13InitializeMacEvE8__func__
20003a8c b _ZZN21Samraksh_Emote_Update28Wireless_Phy_TransmitMessageEPvPK10WP_MessageE17rand_neighbor_idx
20001bb9 b _ZZN7csmaMAC15SendTimeStampedEthPvijE9seqNumber
20001c00 b _ZZN7csmaMAC4SendEthPviE9seqNumber
2000300c b _ZZN8OMACType14ReceiveHandlerEP23IEEE802_15_4_Message_t2iE2pt
200037b8 b _ZZN8OMACType20PrepareMessageBufferEthPviE9seqNumber
20001aec b _ZZN9CLR_Debug4EmitEPKciE7s_chars
20001b10 b _ZZN9CLR_Debug4EmitEPKciE8s_buffer
08075f84 T acos
08049dec T ADC_ClearITPendingBit
08049cd8 T ADC_Cmd
08049c1c T ADC_DeInit
08049cec T ADC_DMACmd
08049dd0 T ADC_ExternalTrigConvCmd
08049d20 T ADC_GetCalibrationStatus
08049de4 T ADC_GetConversionValue
08049d0c T ADC_GetResetCalibrationStatus
08044d04 T ADC_HAL_HANDLER
08049c8c T ADC_Init
20001428 D ADC_MODULE
08049d3c T ADC_RegularChannelConfig
08049d00 T ADC_ResetCalibration
08049d28 T ADC_SoftwareStartConvCmd
08049d14 T ADC_StartCalibration
08049120 T ADC1_2_IRQHandler
0804986c T ADC3_IRQHandler
0806cfd4 T ADCInteropCallback
200053e0 B adcNumSamples
0808093c t ADCPrescTable
200053b4 B adcSamplingTime
0808092c t APBAHBPrescTable
080755ec T arm_bitreversal_q15
08071e14 T arm_cfft_radix4_init_q15
08072fe0 T arm_cfft_radix4_q15
08072750 T arm_radix4_butterfly_inverse_q15
08071eb8 T arm_radix4_butterfly_q15
08020000 T ARM_Vectors
08088b94 T armBitRevTable
08076028 T asin
08075650 T atan
080760cc T atan2
0808c438 t atanhi
0808c418 t atanlo
200053d0 B batchModeADC
0808c6fa t blanks.7055
0803bbc0 T BootEntry
f1e0f85f a BootRAM
0803a28c T BootstrapCode
0808c508 t bp
0807a2e2 T bsearch
00000000 a BUILD_RTM
00000000 a BUILD_RTM
00000000 a BUILD_RTM
08081b9c T c_CLR_radians
08081674 T c_CLR_RT_DataTypeLookup
08081550 T c_CLR_RT_OpcodeLookup
0807e0e4 T c_Debugger_Lookup_Reply
0807e0dc T c_Debugger_Lookup_Reply_count
0807df04 T c_Debugger_Lookup_Request
0807e0e0 T c_Debugger_Lookup_Request_count
080491e0 T CAN1_RX1_IRQHandler
08049220 T CAN1_SCE_IRQHandler
20007878 b CardType
08075970 T ceil
2000787c b CID_Tab
0806feb8 t CmdResp1Error
0806fdfc t CmdResp1Error.part.0
00000001 a COMPILE_THUMB2
00000001 a COMPILE_THUMB2
00000001 a COMPILE_THUMB2
0807a2d4 T copysign
08075a78 T cos
080760d0 T cosh
20007868 b CSD_Tab
20001bbc B csmaSendToRadioFailCount
08082c1c t CSWTCH.1853
08080ccc t CSWTCH.2448
08087c2c t CSWTCH.57
20002058 B currentMacName
20002f89 B currentRadioAckType
20002f88 B currentRadioName
20017e00 R CustomHeapBegin
20017ff8 R CustomHeapEnd
0806e2ec T DAC_Cmd
0806e2b8 T DAC_Init
200076f4 B DAC_InitStructure
0806e340 T DAC_SetChannel1Data
0806e314 T DAC_SoftwareTriggerCmd
08049df4 T DBGMCU_Config
0803bb58 T debug_printf
08048cd8 T Default_Handler
08029bec T DefaultRadioInterruptHandler
08029be4 T DefaultReceiveHandler
08029be8 T DefaultSendAckHandler
20007f98 B DestBuffer
2000788c b DeviceMode
08049ff0 T DMA_ClearFlag
0804a004 T DMA_ClearITPendingBit
08049fa8 T DMA_Cmd
08049e10 T DMA_DeInit
08049fd4 T DMA_GetFlagStatus
08044d14 T DMA_HAL_HANDLER
08049f68 T DMA_Init
08049fc0 T DMA_ITConfig
08048f3c T DMA1_Channel1_IRQHandler
08048fa0 T DMA1_Channel2_IRQHandler
08048fe0 T DMA1_Channel3_IRQHandler
08049020 T DMA1_Channel4_IRQHandler
08049060 T DMA1_Channel5_IRQHandler
080490a0 T DMA1_Channel6_IRQHandler
080490e0 T DMA1_Channel7_IRQHandler
08049a2c T DMA2_Channel1_IRQHandler
08049a6c T DMA2_Channel2_IRQHandler
08049aac T DMA2_Channel3_IRQHandler
08049aec T DMA2_Channel4_5_IRQHandler
200053c8 B dmaModeInitialized
0808c4e8 t dp_h
0808c4f8 t dp_l
200053d4 B dualADCMode
20001424 D EMOTE_ADC_CHANNEL
080201f0 T EntryPoint
08076190 T exp
08079dd8 T expm1
0803a468 T EXTI_ClearITPendingBit
0803a448 T EXTI_GetITStatus
0803a3b8 T EXTI_Init
08049b2c T EXTI0_IRQHandler
08048e30 T EXTI1_IRQHandler
08049690 T EXTI15_10_IRQHandler
08048e88 T EXTI2_IRQHandler
08048ec4 T EXTI3_IRQHandler
08048f00 T EXTI4_IRQHandler
08049260 T EXTI9_5_IRQHandler
200014a8 D EXTILines
08075ae4 T fabs
0807a1dc T finite
0804a080 T FLASH_ErasePage
0804a02c T FLASH_HalfCycleAccessCmd
08048db8 T FLASH_IRQHandler
0804a044 T FLASH_PrefetchBufferCmd
0804a018 T FLASH_SetLatency
0804a05c T FLASH_Unlock
08075af0 T floor
08076280 T fmod
080498ac T FSMC_IRQHandler
0804a318 T FSMC_NORSRAMCmd
0804a248 T FSMC_NORSRAMInit
2000772c B g_adcContext
200053d8 B g_adcDriverBufferChannel1Ptr
200053dc B g_adcDriverBufferDualModePtr
200053cc B g_adcUserBufferChannel1Ptr
200053c0 B g_adcUserBufferChannel2Ptr
20005200 B g_BlockStorageUpdate
200013a0 D g_BlockStorageUpdateProvider
20005938 B g_buildCRC
200053c4 B g_callback
08088ab4 T g_CLR_AssemblyNative_ADC
08088678 T g_CLR_AssemblyNative_CSMACallback
08088264 T g_CLR_AssemblyNative_MACCallback
080880d0 T g_CLR_AssemblyNative_Microsoft_SPOT_EventSink_DriverProcs
080880dc T g_CLR_AssemblyNative_Microsoft_SPOT_Hardware
080880e8 T g_CLR_AssemblyNative_Microsoft_SPOT_Hardware_SerialPort
08088234 T g_CLR_AssemblyNative_Microsoft_SPOT_Hardware_UsartError
080880f4 T g_CLR_AssemblyNative_Microsoft_SPOT_Hardware_UsartEvent
08087bc8 T g_CLR_AssemblyNative_Microsoft_SPOT_Native
08087bdc T g_CLR_AssemblyNative_Microsoft_SPOT_Update
080878d8 T g_CLR_AssemblyNative_mscorlib
0808824c T g_CLR_AssemblyNative_OMACCallback
08088270 T g_CLR_AssemblyNative_RadioCallback_802_15_4
0807f128 T g_CLR_AssemblyNative_RealTimeInteropTimer
08088950 T g_CLR_AssemblyNative_Samraksh_eMote
0808896c T g_CLR_AssemblyNative_Samraksh_eMote_DotNow
08088b74 T g_CLR_AssemblyNative_Samraksh_eMote_DSP
0808866c T g_CLR_AssemblyNative_Samraksh_eMote_Net
08088690 T g_CLR_AssemblyNative_Samraksh_eMote_ProgramManager
0807f134 T g_CLR_AssemblyNative_Samraksh_eMote_RealTime
08088ad8 T g_CLR_AssemblyNative_SD
080886e8 T g_CLR_AssemblyNative_UpdaterProgressCallback
20005df8 B g_CLR_DBG_Debuggers
20005bfc B g_CLR_HW_Hardware
20001530 D g_CLR_InteropAssembliesNativeData
20001a34 B g_CLR_Messaging
20005fc4 B g_CLR_RT_EventCache
20005c38 B g_CLR_RT_ExecutionEngine
20005b84 B g_CLR_RT_GarbageCollector
20005ab8 B g_CLR_RT_Persistence_Manager
20005eb4 B g_CLR_RT_TypeSystem
20005bf0 B g_CLR_RT_WellKnownMethods
20005944 B g_CLR_RT_WellKnownTypes
080ff000 R g_ConfigurationSector
200013d0 D g_CrcUpdateValidationProvider
20001bc0 B g_csmaMacObject
2000791c B g_dataStoreObject
200012f8 D g_DebuggerPortSslConfig
20001c28 B g_Event_Callback
20001c30 B g_Event_Callback_Arg
20001c08 B g_Events_BoolTimerCompletion
20003ea0 B g_fDoNotUninitializeDebuggerPort
200051c8 B g_HAL_Completion_List
200051d4 B g_HAL_Continuation_List
08080a20 t g_HardwareTimerIDs
200053f0 B g_I2C_Driver
20002480 B g_NeighborTable
20003010 B g_OMAC
2000591c B g_palEventDriver
20001338 D g_PortableArrayKitUpdateProvider
2000205c B g_receive_buffer
200037d0 B g_Samraksh_Emote_Update
20005930 B g_scratchDebugger
20005e00 B g_scratchDebuggerMessaging
200067d8 B g_scratchInlineBuffer
200061d4 B g_scratchInterruptDispatchingStorage
20001a38 B g_scratchMessaging
20006c5c B g_scratchVirtualMethodPayload
20007260 B g_scratchVirtualMethodTableLink
200074e8 B g_scratchVirtualMethodTableLinkMRU
20007748 B g_sdContext
2000774c B g_SDIODriver
20001c34 B g_send_buffer
20002f58 B g_STM32F10x_AdvancedTimer
20005790 B g_STM32F10x_i2c_driver
20002f90 B g_STM32F10x_RTC
20002f30 B g_STM32F10x_Timer_Configuration
200053ac B g_Time_Driver
200057d8 B g_TimeDriver
20002fb4 B g_Timer16Bit_Driver
20007728 B g_UpdateManager_Driver_Initialized
20007714 B g_UpdateManagerContext
20007718 B g_UpdateManagerInterruptEnabled
20007720 B g_UpdateManagerUserData
0807edf0 T g_UpdatePackageCount
20001304 D g_UpdatePackages
20002e00 B g_Updates
200058e8 B g_Watchdog_Driver
200057c4 B gNORDriver
08046ee0 T GPIO_ConfigurePinC
0803a82c T GPIO_EXTILineConfig
0803a474 T GPIO_Init
0803a7b8 T GPIO_PinRemapConfig
200014e8 D GPIO_PORT_ARRAY
0803a794 T GPIO_ReadInputDataBit
0803a7a0 T GPIO_ReadOutputDataBit
0803a7ac T GPIO_WriteBit
20003ba8 B grf231Radio
20003b00 B grf231RadioLR
20004cb8 B gVirtualTimerObject
08027d58 T HAL_Time_CurrentTicks
20004be0 B Hal_Usart_State
0808c4a8 t halF
0807ef94 T HalName
2000130c D HalSystemConfig
08048c14 T HardFault_Handler
08048b8c T HardFault_HandlerC
20008010 R HeapBegin
20017df8 R HeapEnd
20001504 D I2C_BUS_ARRAY
0804a4d0 T I2C_ClearFlag
0804a468 T I2C_Cmd
0804a340 T I2C_DeInit
080476fc T I2C_Error_Handler
08047450 T I2C_Event_Handler
0804a484 T I2C_GenerateSTART
0804a380 T I2C_Init
0804a4a0 T I2C_ITConfig
0804a4b4 T I2C_SoftwareResetCmd
080494ac T I2C1_ER_IRQHandler
08049448 T I2C1_EV_IRQHandler
08049550 T I2C2_ER_IRQHandler
08049510 T I2C2_EV_IRQHandler
0007e244 A Image$$ER_FLASH$$Length
20001008 A Image$$ER_RAM_RO$$Base
00000000 A Image$$ER_RAM_RO$$Length
20001010 D Image$$ER_RAM_RW$$Base
00006ff4 A Image$$ER_RAM_RW$$Length
20001a20 B Image$$ER_RAM_RW$$ZI$$Base
000065e4 A Image$$ER_RAM_RW$$ZI$$Length
200015b8 d impure_data
0808c6a0 t init_jk
20003c48 B interrupt
0806fc90 t IsCardProgramming
200014a4 D isErased
0803bb9c T lcd_printf
200019e4 d lconv
0808c4c8 t ln2HI
0808c4b8 t ln2LO
08020000 T Load$$ER_FLASH$$Base
0809e250 A Load$$ER_RAM_RO$$Base
0809e250 A Load$$ER_RAM_RW$$Base
20003ea8 B LOAD_IMAGE_Length
20003ea4 B LOAD_IMAGE_Start
0807633c T log
08076434 T log10
20007754 B MACInteropBuffer
         U malloc
20004ae0 B ManagedCodeRxBuffer_Com
0806d7bc T ManagedSDCallback
0807a1e8 T matherr
0807c07c T memchr
0807a388 T memcmp
0807a3a6 T memcpy
0807a3bc T memmove
0807a3f2 T memset
08075c28 T modf
0807a1ec T nan
20007710 B Net_ne_Context
20007708 B Net_ne_userData
0808c518 t npio2_hw
080462c8 T NVIC_Init
080462b4 T NVIC_PriorityGroupConfig
20002fe8 B OEM_Model_SKU
0808c75c t p05.5397
08048c78 T PendSV_Handler
0808c6b0 t PIo2
00000001 a PLATFORM_ARM_EmoteDotNow
00000001 a PLATFORM_ARM_EmoteDotNow
00000001 a PLATFORM_ARM_EmoteDotNow
00000001 a PLATFORM_ARM_STM32F10x
00000001 a PLATFORM_ARM_STM32F10x
00000001 a PLATFORM_ARM_STM32F10x
08076530 T pow
08020234 T PrepareImageRegions
0804f368 T private_free
080569e4 T private_malloc
08048ce8 T PVD_IRQHandler
0803a858 T PWR_BackupAccessCmd
0803a864 T PWR_EnterSTANDBYMode
0807b44c t quorem
20001bb8 B RadioLockUp
20007890 b RCA
0803a970 T RCC_ADCCLKConfig
0803a8d0 T RCC_AdjustHSICalibrationValue
0803aa88 T RCC_AHBPeriphClockCmd
0803aac0 T RCC_APB1PeriphClockCmd
0803aaf8 T RCC_APB1PeriphResetCmd
0803aaa4 T RCC_APB2PeriphClockCmd
0803aadc T RCC_APB2PeriphResetCmd
0803a890 T RCC_DeInit
0803a9d0 T RCC_GetClocksFreq
0803ab14 T RCC_GetFlagStatus
0803a920 T RCC_GetSYSCLKSource
0803a930 T RCC_HCLKConfig
08048df4 T RCC_IRQHandler
0803a984 T RCC_LSEConfig
0803a9a8 T RCC_LSICmd
0803a944 T RCC_PCLK1Config
0803a958 T RCC_PCLK2Config
0803a900 T RCC_PLLCmd
0803a8e8 T RCC_PLLConfig
0803a9c4 T RCC_RTCCLKCmd
0803a9b4 T RCC_RTCCLKConfig
0803a90c T RCC_SYSCLKConfig
20003c78 B RealTimeCount
20003c8c B RealTimeTimerMicrosecs
080767fc T remainder
08075cbc T rint
0803ac60 T RTC_ClearFlag
0803ac74 T RTC_ClearITPendingBit
0803ab78 T RTC_EnterConfigMode
0803ab8c T RTC_ExitConfigMode
0803aba4 T RTC_GetCounter
0803ac4c T RTC_GetFlagStatus
08048d60 T RTC_IRQHandler
0803ab50 T RTC_ITConfig
0803abf4 T RTC_SetAlarm
0803abc8 T RTC_SetPrescaler
0803ac1c T RTC_WaitForLastTask
0803ac2c T RTC_WaitForSynchro
080496ec T RTCAlarm_IRQHandler
20003eec B RxBuffer_Com
20005b80 B s_CLR_RT_fTrace_AssemblyOverhead
20001518 D s_CLR_RT_fTrace_Exceptions
20005bf8 B s_CLR_RT_fTrace_MemoryStats
2000593c B s_CLR_RT_Heap
20001520 D s_TickMask
20001528 D s_UTCMask
00000001 a SAM_APP_TINYCLR
00000001 a SAM_APP_TINYCLR
00000001 a SAM_APP_TINYCLR
20017e00 a SAM_CUSTOM_HEAP_BEGIN
20017e00 a SAM_CUSTOM_HEAP_BEGIN
20017e00 a SAM_CUSTOM_HEAP_BEGIN
20017ff8 a SAM_CUSTOM_HEAP_END
20017ff8 a SAM_CUSTOM_HEAP_END
20017ff8 a SAM_CUSTOM_HEAP_END
2000f5ac a SAM_HEAP_BEGIN
2000f5ac a SAM_HEAP_BEGIN
2000f5ac a SAM_HEAP_BEGIN
20017df8 a SAM_HEAP_END
20017df8 a SAM_HEAP_END
20017df8 a SAM_HEAP_END
20017f00 a SAM_PROFILER_BUFFER_BEGIN
20017f00 a SAM_PROFILER_BUFFER_BEGIN
20017f00 a SAM_PROFILER_BUFFER_BEGIN
20017ff8 a SAM_PROFILER_BUFFER_END
20017ff8 a SAM_PROFILER_BUFFER_END
20017ff8 a SAM_PROFILER_BUFFER_END
20000000 a SAM_STACK_BOTTOM
20000000 a SAM_STACK_BOTTOM
20000000 a SAM_STACK_BOTTOM
20001000 a SAM_STACK_TOP
20001000 a SAM_STACK_TOP
20001000 a SAM_STACK_TOP
0807a1f8 T scalbn
08071264 T SD_Erase
080706d8 T SD_GetCardInfo
08070970 T SD_Init
0807052c T SD_InitializeCards
080701d4 T SD_LowLevel_DMA_RxConfig
08070240 T SD_LowLevel_DMA_TxConfig
080702ac T SD_PowerON
08070ac4 T SD_ReadBlock
08070dd8 T SD_WriteBlock
20007fa0 B SDCardInfo
0806ff04 t SDEnWideBus
08071584 T SDIO_ClearFlag
08071590 T SDIO_ClearITPendingBit
08071464 T SDIO_ClockCmd
20007ff0 B SDIO_CmdInitStructure
08071520 T SDIO_DataConfig
20007f80 B SDIO_DataInitStructure
08071408 T SDIO_DeInit
080714b4 T SDIO_DMACmd
080714f4 T SDIO_GetCommandResponse
08071570 T SDIO_GetFlagStatus
08071488 T SDIO_GetPowerState
08071504 T SDIO_GetResponse
08071430 T SDIO_Init
20007f68 B SDIO_InitStructure
080498ec T SDIO_IRQHandler
08071498 T SDIO_ITConfig
08071550 T SDIO_ReadData
080714c0 T SDIO_SendCommand
08071470 T SDIO_SetPowerState
08071560 T SDIO_WriteData
0807a378 T setlocale
08075dd8 T sin
0807689c T sinh
0803ad50 T SPI_Cmd
0803ac88 T SPI_I2S_DeInit
0803ad94 T SPI_I2S_GetFlagStatus
0803ad70 T SPI_I2S_ReceiveData
0803ad6c T SPI_I2S_SendData
0803acf8 T SPI_Init
200057a8 B SPI_Initialized
200057b0 B SPI_InitStructure
200057ac B SPI_mod
0803ad78 T SPI_SSOutputCmd
0803ad38 T SPI_StructInit
08049590 T SPI1_IRQHandler
080495d0 T SPI2_IRQHandler
0804996c T SPI3_IRQHandler
08076964 T sqrt
20007f9c B SrcBuffer
20001000 R StackTop
20001394 D STM32F10x_blConfig_ExternalFlash_NOR
20001350 D STM32F10x_blConfig_InternalFlash
20001378 D STM32F10x_BlockDeviceInfo_ExternalFlash_NOR
2000135c D STM32F10x_BlockDeviceInfo_InternalFlash
200051f0 B STM32F10x_BlockStorageDevice_ExternalFlash_NOR
200051e0 B STM32F10x_BlockStorageDevice_InternalFlash
20001470 D STM32F10x_IBlockStorageDevice_ExternalFlash_NOR
2000143c D STM32F10x_IBlockStorageDevice_InternalFlash
2000789c b StopCondition
0807a402 T strchr
0807a41e T strcmp
0807a432 T strcpy
0807c5ec T strlen
0807a442 T strncpy
20001308 D strUfoRadio
08048c38 T SVC_Handler
20001c2c B SystemEvents
0803bd10 T SystemState_ClearNoLock
0803bd24 T SystemState_QueryNoLock
0803bcfc T SystemState_SetNoLock
20003e8c B SystemStates
08048cc8 T SysTick_Handler
08048d24 T TAMPER_IRQHandler
08075e4c T tan
08075ea0 T tanh
00000001 a TARGETLOCATION_FLASH
00000001 a TARGETLOCATION_FLASH
00000001 a TARGETLOCATION_FLASH
0803b1b4 T TIM_ARRPreloadConfig
0803b248 T TIM_ClearFlag
0803b268 T TIM_ClearITPendingBit
0803b168 T TIM_Cmd
0803ada0 T TIM_DeInit
0803b198 T TIM_GenerateEvent
0803b234 T TIM_GetCounter
0803b23c T TIM_GetFlagStatus
0803b250 T TIM_GetITStatus
08044e0c T TIM_HAL_HANDLER
0803b184 T TIM_ITConfig
0803b0d4 T TIM_OC4Init
0803b1d0 T TIM_OC4PreloadConfig
0803b19c T TIM_PrescalerConfig
0803b1a4 T TIM_SelectInputTrigger
0803b214 T TIM_SelectMasterSlaveMode
0803b1e4 T TIM_SelectOutputTrigger
0803b1fc T TIM_SelectSlaveMode
0803b22c T TIM_SetCompare1
0803b230 T TIM_SetCompare3
0803b000 T TIM_TimeBaseInit
0803b154 T TIM_TimeBaseStructInit
080492b8 T TIM1_BRK_IRQHandler
08049378 T TIM1_CC_IRQHandler
08049338 T TIM1_TRG_COM_IRQHandler
080492f8 T TIM1_UP_IRQHandler
08049b68 T TIM2_IRQHandler
080493c8 T TIM3_IRQHandler
08049408 T TIM4_IRQHandler
0804992c T TIM5_IRQHandler
080499ac T TIM6_IRQHandler
080499ec T TIM7_IRQHandler
0804976c T TIM8_BRK_IRQHandler
0804982c T TIM8_CC_IRQHandler
0809e240 T TinyClr_Dat_End
0808c858 T TinyClr_Dat_Start
20007894 b TotalNumberOfBytes
20007898 B TransferEnd
200015a0 D TransferError
08089394 T twiddleCoefQ15
0808c598 t two_over_pi
0808c458 t TWO52
20003fec B TxBuffer_Com
200077e0 B updateIDInUse
0803b4b4 T USART_ClearITPendingBit
0803b3fc T USART_Cmd
0803b270 T USART_DeInit
0803b460 T USART_GetFlagStatus
0803b46c T USART_GetITStatus
0803b328 T USART_Init
0803b418 T USART_ITConfig
0803b458 T USART_ReceiveData
0803b450 T USART_SendData
0803b3e4 T USART_StructInit
0802a7b8 T USART1_IRQHandler
08049610 T USART2_IRQHandler
08049650 T USART3_IRQHandler
080497ac T USART4_IRQHandler
080497ec T USART5_IRQHandler
08049160 T USB_HP_CAN1_TX_IRQHandler
080491a0 T USB_LP_CAN1_RX0_IRQHandler
0804972c T USBWakeUp_IRQHandler
08020208 T VectorRelocate
0807a4c0 T vsnprintf
0808c4d8 t Zero
0808c73c t zeroes.7056
